ARM GAS  /tmp/cc03sYHg.s 			page 1


   1              		.cpu cortex-m0
   2              		.eabi_attribute 20, 1
   3              		.eabi_attribute 21, 1
   4              		.eabi_attribute 23, 3
   5              		.eabi_attribute 24, 1
   6              		.eabi_attribute 25, 1
   7              		.eabi_attribute 26, 1
   8              		.eabi_attribute 30, 6
   9              		.eabi_attribute 34, 0
  10              		.eabi_attribute 18, 4
  11              		.file	"main.cpp"
  12              		.text
  13              	.Ltext0:
  14              		.cfi_sections	.debug_frame
  15              		.section	.text.NVIC_EnableIRQ,"ax",%progbits
  16              		.align	1
  17              		.syntax unified
  18              		.code	16
  19              		.thumb_func
  20              		.fpu softvfp
  22              	NVIC_EnableIRQ:
  23              	.LFB45:
  24              		.file 1 "mculib3/STM32F0_files/CMSIS/core_cm0.h"
   1:mculib3/STM32F0_files/CMSIS/core_cm0.h **** /**************************************************************************//**
   2:mculib3/STM32F0_files/CMSIS/core_cm0.h ****  * @file     core_cm0.h
   3:mculib3/STM32F0_files/CMSIS/core_cm0.h ****  * @brief    CMSIS Cortex-M0 Core Peripheral Access Layer Header File
   4:mculib3/STM32F0_files/CMSIS/core_cm0.h ****  * @version  V4.30
   5:mculib3/STM32F0_files/CMSIS/core_cm0.h ****  * @date     20. October 2015
   6:mculib3/STM32F0_files/CMSIS/core_cm0.h ****  ******************************************************************************/
   7:mculib3/STM32F0_files/CMSIS/core_cm0.h **** /* Copyright (c) 2009 - 2015 ARM LIMITED
   8:mculib3/STM32F0_files/CMSIS/core_cm0.h **** 
   9:mculib3/STM32F0_files/CMSIS/core_cm0.h ****    All rights reserved.
  10:mculib3/STM32F0_files/CMSIS/core_cm0.h ****    Redistribution and use in source and binary forms, with or without
  11:mculib3/STM32F0_files/CMSIS/core_cm0.h ****    modification, are permitted provided that the following conditions are met:
  12:mculib3/STM32F0_files/CMSIS/core_cm0.h ****    - Redistributions of source code must retain the above copyright
  13:mculib3/STM32F0_files/CMSIS/core_cm0.h ****      notice, this list of conditions and the following disclaimer.
  14:mculib3/STM32F0_files/CMSIS/core_cm0.h ****    - Redistributions in binary form must reproduce the above copyright
  15:mculib3/STM32F0_files/CMSIS/core_cm0.h ****      notice, this list of conditions and the following disclaimer in the
  16:mculib3/STM32F0_files/CMSIS/core_cm0.h ****      documentation and/or other materials provided with the distribution.
  17:mculib3/STM32F0_files/CMSIS/core_cm0.h ****    - Neither the name of ARM nor the names of its contributors may be used
  18:mculib3/STM32F0_files/CMSIS/core_cm0.h ****      to endorse or promote products derived from this software without
  19:mculib3/STM32F0_files/CMSIS/core_cm0.h ****      specific prior written permission.
  20:mculib3/STM32F0_files/CMSIS/core_cm0.h ****    *
  21:mculib3/STM32F0_files/CMSIS/core_cm0.h ****    THIS SOFTWARE IS PROVIDED BY THE COPYRIGHT HOLDERS AND CONTRIBUTORS "AS IS"
  22:mculib3/STM32F0_files/CMSIS/core_cm0.h ****    AND ANY EXPRESS OR IMPLIED WARRANTIES, INCLUDING, BUT NOT LIMITED TO, THE
  23:mculib3/STM32F0_files/CMSIS/core_cm0.h ****    IMPLIED WARRANTIES OF MERCHANTABILITY AND FITNESS FOR A PARTICULAR PURPOSE
  24:mculib3/STM32F0_files/CMSIS/core_cm0.h ****    ARE DISCLAIMED. IN NO EVENT SHALL COPYRIGHT HOLDERS AND CONTRIBUTORS BE
  25:mculib3/STM32F0_files/CMSIS/core_cm0.h ****    LIABLE FOR ANY DIRECT, INDIRECT, INCIDENTAL, SPECIAL, EXEMPLARY, OR
  26:mculib3/STM32F0_files/CMSIS/core_cm0.h ****    CONSEQUENTIAL DAMAGES (INCLUDING, BUT NOT LIMITED TO, PROCUREMENT OF
  27:mculib3/STM32F0_files/CMSIS/core_cm0.h ****    SUBSTITUTE GOODS OR SERVICES; LOSS OF USE, DATA, OR PROFITS; OR BUSINESS
  28:mculib3/STM32F0_files/CMSIS/core_cm0.h ****    INTERRUPTION) HOWEVER CAUSED AND ON ANY THEORY OF LIABILITY, WHETHER IN
  29:mculib3/STM32F0_files/CMSIS/core_cm0.h ****    CONTRACT, STRICT LIABILITY, OR TORT (INCLUDING NEGLIGENCE OR OTHERWISE)
  30:mculib3/STM32F0_files/CMSIS/core_cm0.h ****    ARISING IN ANY WAY OUT OF THE USE OF THIS SOFTWARE, EVEN IF ADVISED OF THE
  31:mculib3/STM32F0_files/CMSIS/core_cm0.h ****    POSSIBILITY OF SUCH DAMAGE.
  32:mculib3/STM32F0_files/CMSIS/core_cm0.h ****    ---------------------------------------------------------------------------*/
  33:mculib3/STM32F0_files/CMSIS/core_cm0.h **** 
  34:mculib3/STM32F0_files/CMSIS/core_cm0.h **** 
ARM GAS  /tmp/cc03sYHg.s 			page 2


  35:mculib3/STM32F0_files/CMSIS/core_cm0.h **** #if   defined ( __ICCARM__ )
  36:mculib3/STM32F0_files/CMSIS/core_cm0.h ****  #pragma system_include         /* treat file as system include file for MISRA check */
  37:mculib3/STM32F0_files/CMSIS/core_cm0.h **** #elif defined(__ARMCC_VERSION) && (__ARMCC_VERSION >= 6010050)
  38:mculib3/STM32F0_files/CMSIS/core_cm0.h ****   #pragma clang system_header   /* treat file as system include file */
  39:mculib3/STM32F0_files/CMSIS/core_cm0.h **** #endif
  40:mculib3/STM32F0_files/CMSIS/core_cm0.h **** 
  41:mculib3/STM32F0_files/CMSIS/core_cm0.h **** #ifndef __CORE_CM0_H_GENERIC
  42:mculib3/STM32F0_files/CMSIS/core_cm0.h **** #define __CORE_CM0_H_GENERIC
  43:mculib3/STM32F0_files/CMSIS/core_cm0.h **** 
  44:mculib3/STM32F0_files/CMSIS/core_cm0.h **** #include <stdint.h>
  45:mculib3/STM32F0_files/CMSIS/core_cm0.h **** 
  46:mculib3/STM32F0_files/CMSIS/core_cm0.h **** #ifdef __cplusplus
  47:mculib3/STM32F0_files/CMSIS/core_cm0.h ****  extern "C" {
  48:mculib3/STM32F0_files/CMSIS/core_cm0.h **** #endif
  49:mculib3/STM32F0_files/CMSIS/core_cm0.h **** 
  50:mculib3/STM32F0_files/CMSIS/core_cm0.h **** /**
  51:mculib3/STM32F0_files/CMSIS/core_cm0.h ****   \page CMSIS_MISRA_Exceptions  MISRA-C:2004 Compliance Exceptions
  52:mculib3/STM32F0_files/CMSIS/core_cm0.h ****   CMSIS violates the following MISRA-C:2004 rules:
  53:mculib3/STM32F0_files/CMSIS/core_cm0.h **** 
  54:mculib3/STM32F0_files/CMSIS/core_cm0.h ****    \li Required Rule 8.5, object/function definition in header file.<br>
  55:mculib3/STM32F0_files/CMSIS/core_cm0.h ****      Function definitions in header files are used to allow 'inlining'.
  56:mculib3/STM32F0_files/CMSIS/core_cm0.h **** 
  57:mculib3/STM32F0_files/CMSIS/core_cm0.h ****    \li Required Rule 18.4, declaration of union type or object of union type: '{...}'.<br>
  58:mculib3/STM32F0_files/CMSIS/core_cm0.h ****      Unions are used for effective representation of core registers.
  59:mculib3/STM32F0_files/CMSIS/core_cm0.h **** 
  60:mculib3/STM32F0_files/CMSIS/core_cm0.h ****    \li Advisory Rule 19.7, Function-like macro defined.<br>
  61:mculib3/STM32F0_files/CMSIS/core_cm0.h ****      Function-like macros are used to allow more efficient code.
  62:mculib3/STM32F0_files/CMSIS/core_cm0.h ****  */
  63:mculib3/STM32F0_files/CMSIS/core_cm0.h **** 
  64:mculib3/STM32F0_files/CMSIS/core_cm0.h **** 
  65:mculib3/STM32F0_files/CMSIS/core_cm0.h **** /*******************************************************************************
  66:mculib3/STM32F0_files/CMSIS/core_cm0.h ****  *                 CMSIS definitions
  67:mculib3/STM32F0_files/CMSIS/core_cm0.h ****  ******************************************************************************/
  68:mculib3/STM32F0_files/CMSIS/core_cm0.h **** /**
  69:mculib3/STM32F0_files/CMSIS/core_cm0.h ****   \ingroup Cortex_M0
  70:mculib3/STM32F0_files/CMSIS/core_cm0.h ****   @{
  71:mculib3/STM32F0_files/CMSIS/core_cm0.h ****  */
  72:mculib3/STM32F0_files/CMSIS/core_cm0.h **** 
  73:mculib3/STM32F0_files/CMSIS/core_cm0.h **** /*  CMSIS CM0 definitions */
  74:mculib3/STM32F0_files/CMSIS/core_cm0.h **** #define __CM0_CMSIS_VERSION_MAIN  (0x04U)                                      /*!< [31:16] CMSIS H
  75:mculib3/STM32F0_files/CMSIS/core_cm0.h **** #define __CM0_CMSIS_VERSION_SUB   (0x1EU)                                      /*!< [15:0]  CMSIS H
  76:mculib3/STM32F0_files/CMSIS/core_cm0.h **** #define __CM0_CMSIS_VERSION       ((__CM0_CMSIS_VERSION_MAIN << 16U) | \
  77:mculib3/STM32F0_files/CMSIS/core_cm0.h ****                                     __CM0_CMSIS_VERSION_SUB           )        /*!< CMSIS HAL versi
  78:mculib3/STM32F0_files/CMSIS/core_cm0.h **** 
  79:mculib3/STM32F0_files/CMSIS/core_cm0.h **** #define __CORTEX_M                (0x00U)                                      /*!< Cortex-M Core *
  80:mculib3/STM32F0_files/CMSIS/core_cm0.h **** 
  81:mculib3/STM32F0_files/CMSIS/core_cm0.h **** 
  82:mculib3/STM32F0_files/CMSIS/core_cm0.h **** #if   defined ( __CC_ARM )
  83:mculib3/STM32F0_files/CMSIS/core_cm0.h ****   #define __ASM            __asm                                      /*!< asm keyword for ARM Comp
  84:mculib3/STM32F0_files/CMSIS/core_cm0.h ****   #define __INLINE         __inline                                   /*!< inline keyword for ARM C
  85:mculib3/STM32F0_files/CMSIS/core_cm0.h ****   #define __STATIC_INLINE  static __inline
  86:mculib3/STM32F0_files/CMSIS/core_cm0.h **** 
  87:mculib3/STM32F0_files/CMSIS/core_cm0.h **** #elif defined(__ARMCC_VERSION) && (__ARMCC_VERSION >= 6010050)
  88:mculib3/STM32F0_files/CMSIS/core_cm0.h ****   #define __ASM            __asm                                      /*!< asm keyword for ARM Comp
  89:mculib3/STM32F0_files/CMSIS/core_cm0.h ****   #define __INLINE         __inline                                   /*!< inline keyword for ARM C
  90:mculib3/STM32F0_files/CMSIS/core_cm0.h ****   #define __STATIC_INLINE  static __inline
  91:mculib3/STM32F0_files/CMSIS/core_cm0.h **** 
ARM GAS  /tmp/cc03sYHg.s 			page 3


  92:mculib3/STM32F0_files/CMSIS/core_cm0.h **** #elif defined ( __GNUC__ )
  93:mculib3/STM32F0_files/CMSIS/core_cm0.h ****   #define __ASM            __asm                                      /*!< asm keyword for GNU Comp
  94:mculib3/STM32F0_files/CMSIS/core_cm0.h ****   #define __INLINE         inline                                     /*!< inline keyword for GNU C
  95:mculib3/STM32F0_files/CMSIS/core_cm0.h ****   #define __STATIC_INLINE  static inline
  96:mculib3/STM32F0_files/CMSIS/core_cm0.h **** 
  97:mculib3/STM32F0_files/CMSIS/core_cm0.h **** #elif defined ( __ICCARM__ )
  98:mculib3/STM32F0_files/CMSIS/core_cm0.h ****   #define __ASM            __asm                                      /*!< asm keyword for IAR Comp
  99:mculib3/STM32F0_files/CMSIS/core_cm0.h ****   #define __INLINE         inline                                     /*!< inline keyword for IAR C
 100:mculib3/STM32F0_files/CMSIS/core_cm0.h ****   #define __STATIC_INLINE  static inline
 101:mculib3/STM32F0_files/CMSIS/core_cm0.h **** 
 102:mculib3/STM32F0_files/CMSIS/core_cm0.h **** #elif defined ( __TMS470__ )
 103:mculib3/STM32F0_files/CMSIS/core_cm0.h ****   #define __ASM            __asm                                      /*!< asm keyword for TI CCS C
 104:mculib3/STM32F0_files/CMSIS/core_cm0.h ****   #define __STATIC_INLINE  static inline
 105:mculib3/STM32F0_files/CMSIS/core_cm0.h **** 
 106:mculib3/STM32F0_files/CMSIS/core_cm0.h **** #elif defined ( __TASKING__ )
 107:mculib3/STM32F0_files/CMSIS/core_cm0.h ****   #define __ASM            __asm                                      /*!< asm keyword for TASKING 
 108:mculib3/STM32F0_files/CMSIS/core_cm0.h ****   #define __INLINE         inline                                     /*!< inline keyword for TASKI
 109:mculib3/STM32F0_files/CMSIS/core_cm0.h ****   #define __STATIC_INLINE  static inline
 110:mculib3/STM32F0_files/CMSIS/core_cm0.h **** 
 111:mculib3/STM32F0_files/CMSIS/core_cm0.h **** #elif defined ( __CSMC__ )
 112:mculib3/STM32F0_files/CMSIS/core_cm0.h ****   #define __packed
 113:mculib3/STM32F0_files/CMSIS/core_cm0.h ****   #define __ASM            _asm                                      /*!< asm keyword for COSMIC Co
 114:mculib3/STM32F0_files/CMSIS/core_cm0.h ****   #define __INLINE         inline                                    /*!< inline keyword for COSMIC
 115:mculib3/STM32F0_files/CMSIS/core_cm0.h ****   #define __STATIC_INLINE  static inline
 116:mculib3/STM32F0_files/CMSIS/core_cm0.h **** 
 117:mculib3/STM32F0_files/CMSIS/core_cm0.h **** #else
 118:mculib3/STM32F0_files/CMSIS/core_cm0.h ****   #error Unknown compiler
 119:mculib3/STM32F0_files/CMSIS/core_cm0.h **** #endif
 120:mculib3/STM32F0_files/CMSIS/core_cm0.h **** 
 121:mculib3/STM32F0_files/CMSIS/core_cm0.h **** /** __FPU_USED indicates whether an FPU is used or not.
 122:mculib3/STM32F0_files/CMSIS/core_cm0.h ****     This core does not support an FPU at all
 123:mculib3/STM32F0_files/CMSIS/core_cm0.h **** */
 124:mculib3/STM32F0_files/CMSIS/core_cm0.h **** #define __FPU_USED       0U
 125:mculib3/STM32F0_files/CMSIS/core_cm0.h **** 
 126:mculib3/STM32F0_files/CMSIS/core_cm0.h **** #if defined ( __CC_ARM )
 127:mculib3/STM32F0_files/CMSIS/core_cm0.h ****   #if defined __TARGET_FPU_VFP
 128:mculib3/STM32F0_files/CMSIS/core_cm0.h ****     #error "Compiler generates FPU instructions for a device without an FPU (check __FPU_PRESENT)"
 129:mculib3/STM32F0_files/CMSIS/core_cm0.h ****   #endif
 130:mculib3/STM32F0_files/CMSIS/core_cm0.h **** 
 131:mculib3/STM32F0_files/CMSIS/core_cm0.h **** #elif defined(__ARMCC_VERSION) && (__ARMCC_VERSION >= 6010050)
 132:mculib3/STM32F0_files/CMSIS/core_cm0.h ****   #if defined __ARM_PCS_VFP
 133:mculib3/STM32F0_files/CMSIS/core_cm0.h ****     #error "Compiler generates FPU instructions for a device without an FPU (check __FPU_PRESENT)"
 134:mculib3/STM32F0_files/CMSIS/core_cm0.h ****   #endif
 135:mculib3/STM32F0_files/CMSIS/core_cm0.h **** 
 136:mculib3/STM32F0_files/CMSIS/core_cm0.h **** #elif defined ( __GNUC__ )
 137:mculib3/STM32F0_files/CMSIS/core_cm0.h ****   #if defined (__VFP_FP__) && !defined(__SOFTFP__)
 138:mculib3/STM32F0_files/CMSIS/core_cm0.h ****     #error "Compiler generates FPU instructions for a device without an FPU (check __FPU_PRESENT)"
 139:mculib3/STM32F0_files/CMSIS/core_cm0.h ****   #endif
 140:mculib3/STM32F0_files/CMSIS/core_cm0.h **** 
 141:mculib3/STM32F0_files/CMSIS/core_cm0.h **** #elif defined ( __ICCARM__ )
 142:mculib3/STM32F0_files/CMSIS/core_cm0.h ****   #if defined __ARMVFP__
 143:mculib3/STM32F0_files/CMSIS/core_cm0.h ****     #error "Compiler generates FPU instructions for a device without an FPU (check __FPU_PRESENT)"
 144:mculib3/STM32F0_files/CMSIS/core_cm0.h ****   #endif
 145:mculib3/STM32F0_files/CMSIS/core_cm0.h **** 
 146:mculib3/STM32F0_files/CMSIS/core_cm0.h **** #elif defined ( __TMS470__ )
 147:mculib3/STM32F0_files/CMSIS/core_cm0.h ****   #if defined __TI_VFP_SUPPORT__
 148:mculib3/STM32F0_files/CMSIS/core_cm0.h ****     #error "Compiler generates FPU instructions for a device without an FPU (check __FPU_PRESENT)"
ARM GAS  /tmp/cc03sYHg.s 			page 4


 149:mculib3/STM32F0_files/CMSIS/core_cm0.h ****   #endif
 150:mculib3/STM32F0_files/CMSIS/core_cm0.h **** 
 151:mculib3/STM32F0_files/CMSIS/core_cm0.h **** #elif defined ( __TASKING__ )
 152:mculib3/STM32F0_files/CMSIS/core_cm0.h ****   #if defined __FPU_VFP__
 153:mculib3/STM32F0_files/CMSIS/core_cm0.h ****     #error "Compiler generates FPU instructions for a device without an FPU (check __FPU_PRESENT)"
 154:mculib3/STM32F0_files/CMSIS/core_cm0.h ****   #endif
 155:mculib3/STM32F0_files/CMSIS/core_cm0.h **** 
 156:mculib3/STM32F0_files/CMSIS/core_cm0.h **** #elif defined ( __CSMC__ )
 157:mculib3/STM32F0_files/CMSIS/core_cm0.h ****   #if ( __CSMC__ & 0x400U)
 158:mculib3/STM32F0_files/CMSIS/core_cm0.h ****     #error "Compiler generates FPU instructions for a device without an FPU (check __FPU_PRESENT)"
 159:mculib3/STM32F0_files/CMSIS/core_cm0.h ****   #endif
 160:mculib3/STM32F0_files/CMSIS/core_cm0.h **** 
 161:mculib3/STM32F0_files/CMSIS/core_cm0.h **** #endif
 162:mculib3/STM32F0_files/CMSIS/core_cm0.h **** 
 163:mculib3/STM32F0_files/CMSIS/core_cm0.h **** #include "core_cmInstr.h"                /* Core Instruction Access */
 164:mculib3/STM32F0_files/CMSIS/core_cm0.h **** #include "core_cmFunc.h"                 /* Core Function Access */
 165:mculib3/STM32F0_files/CMSIS/core_cm0.h **** 
 166:mculib3/STM32F0_files/CMSIS/core_cm0.h **** #ifdef __cplusplus
 167:mculib3/STM32F0_files/CMSIS/core_cm0.h **** }
 168:mculib3/STM32F0_files/CMSIS/core_cm0.h **** #endif
 169:mculib3/STM32F0_files/CMSIS/core_cm0.h **** 
 170:mculib3/STM32F0_files/CMSIS/core_cm0.h **** #endif /* __CORE_CM0_H_GENERIC */
 171:mculib3/STM32F0_files/CMSIS/core_cm0.h **** 
 172:mculib3/STM32F0_files/CMSIS/core_cm0.h **** #ifndef __CMSIS_GENERIC
 173:mculib3/STM32F0_files/CMSIS/core_cm0.h **** 
 174:mculib3/STM32F0_files/CMSIS/core_cm0.h **** #ifndef __CORE_CM0_H_DEPENDANT
 175:mculib3/STM32F0_files/CMSIS/core_cm0.h **** #define __CORE_CM0_H_DEPENDANT
 176:mculib3/STM32F0_files/CMSIS/core_cm0.h **** 
 177:mculib3/STM32F0_files/CMSIS/core_cm0.h **** #ifdef __cplusplus
 178:mculib3/STM32F0_files/CMSIS/core_cm0.h ****  extern "C" {
 179:mculib3/STM32F0_files/CMSIS/core_cm0.h **** #endif
 180:mculib3/STM32F0_files/CMSIS/core_cm0.h **** 
 181:mculib3/STM32F0_files/CMSIS/core_cm0.h **** /* check device defines and use defaults */
 182:mculib3/STM32F0_files/CMSIS/core_cm0.h **** #if defined __CHECK_DEVICE_DEFINES
 183:mculib3/STM32F0_files/CMSIS/core_cm0.h ****   #ifndef __CM0_REV
 184:mculib3/STM32F0_files/CMSIS/core_cm0.h ****     #define __CM0_REV               0x0000U
 185:mculib3/STM32F0_files/CMSIS/core_cm0.h ****     #warning "__CM0_REV not defined in device header file; using default!"
 186:mculib3/STM32F0_files/CMSIS/core_cm0.h ****   #endif
 187:mculib3/STM32F0_files/CMSIS/core_cm0.h **** 
 188:mculib3/STM32F0_files/CMSIS/core_cm0.h ****   #ifndef __NVIC_PRIO_BITS
 189:mculib3/STM32F0_files/CMSIS/core_cm0.h ****     #define __NVIC_PRIO_BITS          2U
 190:mculib3/STM32F0_files/CMSIS/core_cm0.h ****     #warning "__NVIC_PRIO_BITS not defined in device header file; using default!"
 191:mculib3/STM32F0_files/CMSIS/core_cm0.h ****   #endif
 192:mculib3/STM32F0_files/CMSIS/core_cm0.h **** 
 193:mculib3/STM32F0_files/CMSIS/core_cm0.h ****   #ifndef __Vendor_SysTickConfig
 194:mculib3/STM32F0_files/CMSIS/core_cm0.h ****     #define __Vendor_SysTickConfig    0U
 195:mculib3/STM32F0_files/CMSIS/core_cm0.h ****     #warning "__Vendor_SysTickConfig not defined in device header file; using default!"
 196:mculib3/STM32F0_files/CMSIS/core_cm0.h ****   #endif
 197:mculib3/STM32F0_files/CMSIS/core_cm0.h **** #endif
 198:mculib3/STM32F0_files/CMSIS/core_cm0.h **** 
 199:mculib3/STM32F0_files/CMSIS/core_cm0.h **** /* IO definitions (access restrictions to peripheral registers) */
 200:mculib3/STM32F0_files/CMSIS/core_cm0.h **** /**
 201:mculib3/STM32F0_files/CMSIS/core_cm0.h ****     \defgroup CMSIS_glob_defs CMSIS Global Defines
 202:mculib3/STM32F0_files/CMSIS/core_cm0.h **** 
 203:mculib3/STM32F0_files/CMSIS/core_cm0.h ****     <strong>IO Type Qualifiers</strong> are used
 204:mculib3/STM32F0_files/CMSIS/core_cm0.h ****     \li to specify the access to peripheral variables.
 205:mculib3/STM32F0_files/CMSIS/core_cm0.h ****     \li for automatic generation of peripheral register debug information.
ARM GAS  /tmp/cc03sYHg.s 			page 5


 206:mculib3/STM32F0_files/CMSIS/core_cm0.h **** */
 207:mculib3/STM32F0_files/CMSIS/core_cm0.h **** #ifdef __cplusplus
 208:mculib3/STM32F0_files/CMSIS/core_cm0.h ****   #define   __I     volatile             /*!< Defines 'read only' permissions */
 209:mculib3/STM32F0_files/CMSIS/core_cm0.h **** #else
 210:mculib3/STM32F0_files/CMSIS/core_cm0.h ****   #define   __I     volatile const       /*!< Defines 'read only' permissions */
 211:mculib3/STM32F0_files/CMSIS/core_cm0.h **** #endif
 212:mculib3/STM32F0_files/CMSIS/core_cm0.h **** #define     __O     volatile             /*!< Defines 'write only' permissions */
 213:mculib3/STM32F0_files/CMSIS/core_cm0.h **** #define     __IO    volatile             /*!< Defines 'read / write' permissions */
 214:mculib3/STM32F0_files/CMSIS/core_cm0.h **** 
 215:mculib3/STM32F0_files/CMSIS/core_cm0.h **** /* following defines should be used for structure members */
 216:mculib3/STM32F0_files/CMSIS/core_cm0.h **** #define     __IM     volatile const      /*! Defines 'read only' structure member permissions */
 217:mculib3/STM32F0_files/CMSIS/core_cm0.h **** #define     __OM     volatile            /*! Defines 'write only' structure member permissions */
 218:mculib3/STM32F0_files/CMSIS/core_cm0.h **** #define     __IOM    volatile            /*! Defines 'read / write' structure member permissions */
 219:mculib3/STM32F0_files/CMSIS/core_cm0.h **** 
 220:mculib3/STM32F0_files/CMSIS/core_cm0.h **** /*@} end of group Cortex_M0 */
 221:mculib3/STM32F0_files/CMSIS/core_cm0.h **** 
 222:mculib3/STM32F0_files/CMSIS/core_cm0.h **** 
 223:mculib3/STM32F0_files/CMSIS/core_cm0.h **** 
 224:mculib3/STM32F0_files/CMSIS/core_cm0.h **** /*******************************************************************************
 225:mculib3/STM32F0_files/CMSIS/core_cm0.h ****  *                 Register Abstraction
 226:mculib3/STM32F0_files/CMSIS/core_cm0.h ****   Core Register contain:
 227:mculib3/STM32F0_files/CMSIS/core_cm0.h ****   - Core Register
 228:mculib3/STM32F0_files/CMSIS/core_cm0.h ****   - Core NVIC Register
 229:mculib3/STM32F0_files/CMSIS/core_cm0.h ****   - Core SCB Register
 230:mculib3/STM32F0_files/CMSIS/core_cm0.h ****   - Core SysTick Register
 231:mculib3/STM32F0_files/CMSIS/core_cm0.h ****  ******************************************************************************/
 232:mculib3/STM32F0_files/CMSIS/core_cm0.h **** /**
 233:mculib3/STM32F0_files/CMSIS/core_cm0.h ****   \defgroup CMSIS_core_register Defines and Type Definitions
 234:mculib3/STM32F0_files/CMSIS/core_cm0.h ****   \brief Type definitions and defines for Cortex-M processor based devices.
 235:mculib3/STM32F0_files/CMSIS/core_cm0.h **** */
 236:mculib3/STM32F0_files/CMSIS/core_cm0.h **** 
 237:mculib3/STM32F0_files/CMSIS/core_cm0.h **** /**
 238:mculib3/STM32F0_files/CMSIS/core_cm0.h ****   \ingroup    CMSIS_core_register
 239:mculib3/STM32F0_files/CMSIS/core_cm0.h ****   \defgroup   CMSIS_CORE  Status and Control Registers
 240:mculib3/STM32F0_files/CMSIS/core_cm0.h ****   \brief      Core Register type definitions.
 241:mculib3/STM32F0_files/CMSIS/core_cm0.h ****   @{
 242:mculib3/STM32F0_files/CMSIS/core_cm0.h ****  */
 243:mculib3/STM32F0_files/CMSIS/core_cm0.h **** 
 244:mculib3/STM32F0_files/CMSIS/core_cm0.h **** /**
 245:mculib3/STM32F0_files/CMSIS/core_cm0.h ****   \brief  Union type to access the Application Program Status Register (APSR).
 246:mculib3/STM32F0_files/CMSIS/core_cm0.h ****  */
 247:mculib3/STM32F0_files/CMSIS/core_cm0.h **** typedef union
 248:mculib3/STM32F0_files/CMSIS/core_cm0.h **** {
 249:mculib3/STM32F0_files/CMSIS/core_cm0.h ****   struct
 250:mculib3/STM32F0_files/CMSIS/core_cm0.h ****   {
 251:mculib3/STM32F0_files/CMSIS/core_cm0.h ****     uint32_t _reserved0:28;              /*!< bit:  0..27  Reserved */
 252:mculib3/STM32F0_files/CMSIS/core_cm0.h ****     uint32_t V:1;                        /*!< bit:     28  Overflow condition code flag */
 253:mculib3/STM32F0_files/CMSIS/core_cm0.h ****     uint32_t C:1;                        /*!< bit:     29  Carry condition code flag */
 254:mculib3/STM32F0_files/CMSIS/core_cm0.h ****     uint32_t Z:1;                        /*!< bit:     30  Zero condition code flag */
 255:mculib3/STM32F0_files/CMSIS/core_cm0.h ****     uint32_t N:1;                        /*!< bit:     31  Negative condition code flag */
 256:mculib3/STM32F0_files/CMSIS/core_cm0.h ****   } b;                                   /*!< Structure used for bit  access */
 257:mculib3/STM32F0_files/CMSIS/core_cm0.h ****   uint32_t w;                            /*!< Type      used for word access */
 258:mculib3/STM32F0_files/CMSIS/core_cm0.h **** } APSR_Type;
 259:mculib3/STM32F0_files/CMSIS/core_cm0.h **** 
 260:mculib3/STM32F0_files/CMSIS/core_cm0.h **** /* APSR Register Definitions */
 261:mculib3/STM32F0_files/CMSIS/core_cm0.h **** #define APSR_N_Pos                         31U                                            /*!< APSR
 262:mculib3/STM32F0_files/CMSIS/core_cm0.h **** #define APSR_N_Msk                         (1UL << APSR_N_Pos)                            /*!< APSR
ARM GAS  /tmp/cc03sYHg.s 			page 6


 263:mculib3/STM32F0_files/CMSIS/core_cm0.h **** 
 264:mculib3/STM32F0_files/CMSIS/core_cm0.h **** #define APSR_Z_Pos                         30U                                            /*!< APSR
 265:mculib3/STM32F0_files/CMSIS/core_cm0.h **** #define APSR_Z_Msk                         (1UL << APSR_Z_Pos)                            /*!< APSR
 266:mculib3/STM32F0_files/CMSIS/core_cm0.h **** 
 267:mculib3/STM32F0_files/CMSIS/core_cm0.h **** #define APSR_C_Pos                         29U                                            /*!< APSR
 268:mculib3/STM32F0_files/CMSIS/core_cm0.h **** #define APSR_C_Msk                         (1UL << APSR_C_Pos)                            /*!< APSR
 269:mculib3/STM32F0_files/CMSIS/core_cm0.h **** 
 270:mculib3/STM32F0_files/CMSIS/core_cm0.h **** #define APSR_V_Pos                         28U                                            /*!< APSR
 271:mculib3/STM32F0_files/CMSIS/core_cm0.h **** #define APSR_V_Msk                         (1UL << APSR_V_Pos)                            /*!< APSR
 272:mculib3/STM32F0_files/CMSIS/core_cm0.h **** 
 273:mculib3/STM32F0_files/CMSIS/core_cm0.h **** 
 274:mculib3/STM32F0_files/CMSIS/core_cm0.h **** /**
 275:mculib3/STM32F0_files/CMSIS/core_cm0.h ****   \brief  Union type to access the Interrupt Program Status Register (IPSR).
 276:mculib3/STM32F0_files/CMSIS/core_cm0.h ****  */
 277:mculib3/STM32F0_files/CMSIS/core_cm0.h **** typedef union
 278:mculib3/STM32F0_files/CMSIS/core_cm0.h **** {
 279:mculib3/STM32F0_files/CMSIS/core_cm0.h ****   struct
 280:mculib3/STM32F0_files/CMSIS/core_cm0.h ****   {
 281:mculib3/STM32F0_files/CMSIS/core_cm0.h ****     uint32_t ISR:9;                      /*!< bit:  0.. 8  Exception number */
 282:mculib3/STM32F0_files/CMSIS/core_cm0.h ****     uint32_t _reserved0:23;              /*!< bit:  9..31  Reserved */
 283:mculib3/STM32F0_files/CMSIS/core_cm0.h ****   } b;                                   /*!< Structure used for bit  access */
 284:mculib3/STM32F0_files/CMSIS/core_cm0.h ****   uint32_t w;                            /*!< Type      used for word access */
 285:mculib3/STM32F0_files/CMSIS/core_cm0.h **** } IPSR_Type;
 286:mculib3/STM32F0_files/CMSIS/core_cm0.h **** 
 287:mculib3/STM32F0_files/CMSIS/core_cm0.h **** /* IPSR Register Definitions */
 288:mculib3/STM32F0_files/CMSIS/core_cm0.h **** #define IPSR_ISR_Pos                        0U                                            /*!< IPSR
 289:mculib3/STM32F0_files/CMSIS/core_cm0.h **** #define IPSR_ISR_Msk                       (0x1FFUL /*<< IPSR_ISR_Pos*/)                  /*!< IPSR
 290:mculib3/STM32F0_files/CMSIS/core_cm0.h **** 
 291:mculib3/STM32F0_files/CMSIS/core_cm0.h **** 
 292:mculib3/STM32F0_files/CMSIS/core_cm0.h **** /**
 293:mculib3/STM32F0_files/CMSIS/core_cm0.h ****   \brief  Union type to access the Special-Purpose Program Status Registers (xPSR).
 294:mculib3/STM32F0_files/CMSIS/core_cm0.h ****  */
 295:mculib3/STM32F0_files/CMSIS/core_cm0.h **** typedef union
 296:mculib3/STM32F0_files/CMSIS/core_cm0.h **** {
 297:mculib3/STM32F0_files/CMSIS/core_cm0.h ****   struct
 298:mculib3/STM32F0_files/CMSIS/core_cm0.h ****   {
 299:mculib3/STM32F0_files/CMSIS/core_cm0.h ****     uint32_t ISR:9;                      /*!< bit:  0.. 8  Exception number */
 300:mculib3/STM32F0_files/CMSIS/core_cm0.h ****     uint32_t _reserved0:15;              /*!< bit:  9..23  Reserved */
 301:mculib3/STM32F0_files/CMSIS/core_cm0.h ****     uint32_t T:1;                        /*!< bit:     24  Thumb bit        (read 0) */
 302:mculib3/STM32F0_files/CMSIS/core_cm0.h ****     uint32_t _reserved1:3;               /*!< bit: 25..27  Reserved */
 303:mculib3/STM32F0_files/CMSIS/core_cm0.h ****     uint32_t V:1;                        /*!< bit:     28  Overflow condition code flag */
 304:mculib3/STM32F0_files/CMSIS/core_cm0.h ****     uint32_t C:1;                        /*!< bit:     29  Carry condition code flag */
 305:mculib3/STM32F0_files/CMSIS/core_cm0.h ****     uint32_t Z:1;                        /*!< bit:     30  Zero condition code flag */
 306:mculib3/STM32F0_files/CMSIS/core_cm0.h ****     uint32_t N:1;                        /*!< bit:     31  Negative condition code flag */
 307:mculib3/STM32F0_files/CMSIS/core_cm0.h ****   } b;                                   /*!< Structure used for bit  access */
 308:mculib3/STM32F0_files/CMSIS/core_cm0.h ****   uint32_t w;                            /*!< Type      used for word access */
 309:mculib3/STM32F0_files/CMSIS/core_cm0.h **** } xPSR_Type;
 310:mculib3/STM32F0_files/CMSIS/core_cm0.h **** 
 311:mculib3/STM32F0_files/CMSIS/core_cm0.h **** /* xPSR Register Definitions */
 312:mculib3/STM32F0_files/CMSIS/core_cm0.h **** #define xPSR_N_Pos                         31U                                            /*!< xPSR
 313:mculib3/STM32F0_files/CMSIS/core_cm0.h **** #define xPSR_N_Msk                         (1UL << xPSR_N_Pos)                            /*!< xPSR
 314:mculib3/STM32F0_files/CMSIS/core_cm0.h **** 
 315:mculib3/STM32F0_files/CMSIS/core_cm0.h **** #define xPSR_Z_Pos                         30U                                            /*!< xPSR
 316:mculib3/STM32F0_files/CMSIS/core_cm0.h **** #define xPSR_Z_Msk                         (1UL << xPSR_Z_Pos)                            /*!< xPSR
 317:mculib3/STM32F0_files/CMSIS/core_cm0.h **** 
 318:mculib3/STM32F0_files/CMSIS/core_cm0.h **** #define xPSR_C_Pos                         29U                                            /*!< xPSR
 319:mculib3/STM32F0_files/CMSIS/core_cm0.h **** #define xPSR_C_Msk                         (1UL << xPSR_C_Pos)                            /*!< xPSR
ARM GAS  /tmp/cc03sYHg.s 			page 7


 320:mculib3/STM32F0_files/CMSIS/core_cm0.h **** 
 321:mculib3/STM32F0_files/CMSIS/core_cm0.h **** #define xPSR_V_Pos                         28U                                            /*!< xPSR
 322:mculib3/STM32F0_files/CMSIS/core_cm0.h **** #define xPSR_V_Msk                         (1UL << xPSR_V_Pos)                            /*!< xPSR
 323:mculib3/STM32F0_files/CMSIS/core_cm0.h **** 
 324:mculib3/STM32F0_files/CMSIS/core_cm0.h **** #define xPSR_T_Pos                         24U                                            /*!< xPSR
 325:mculib3/STM32F0_files/CMSIS/core_cm0.h **** #define xPSR_T_Msk                         (1UL << xPSR_T_Pos)                            /*!< xPSR
 326:mculib3/STM32F0_files/CMSIS/core_cm0.h **** 
 327:mculib3/STM32F0_files/CMSIS/core_cm0.h **** #define xPSR_ISR_Pos                        0U                                            /*!< xPSR
 328:mculib3/STM32F0_files/CMSIS/core_cm0.h **** #define xPSR_ISR_Msk                       (0x1FFUL /*<< xPSR_ISR_Pos*/)                  /*!< xPSR
 329:mculib3/STM32F0_files/CMSIS/core_cm0.h **** 
 330:mculib3/STM32F0_files/CMSIS/core_cm0.h **** 
 331:mculib3/STM32F0_files/CMSIS/core_cm0.h **** /**
 332:mculib3/STM32F0_files/CMSIS/core_cm0.h ****   \brief  Union type to access the Control Registers (CONTROL).
 333:mculib3/STM32F0_files/CMSIS/core_cm0.h ****  */
 334:mculib3/STM32F0_files/CMSIS/core_cm0.h **** typedef union
 335:mculib3/STM32F0_files/CMSIS/core_cm0.h **** {
 336:mculib3/STM32F0_files/CMSIS/core_cm0.h ****   struct
 337:mculib3/STM32F0_files/CMSIS/core_cm0.h ****   {
 338:mculib3/STM32F0_files/CMSIS/core_cm0.h ****     uint32_t _reserved0:1;               /*!< bit:      0  Reserved */
 339:mculib3/STM32F0_files/CMSIS/core_cm0.h ****     uint32_t SPSEL:1;                    /*!< bit:      1  Stack to be used */
 340:mculib3/STM32F0_files/CMSIS/core_cm0.h ****     uint32_t _reserved1:30;              /*!< bit:  2..31  Reserved */
 341:mculib3/STM32F0_files/CMSIS/core_cm0.h ****   } b;                                   /*!< Structure used for bit  access */
 342:mculib3/STM32F0_files/CMSIS/core_cm0.h ****   uint32_t w;                            /*!< Type      used for word access */
 343:mculib3/STM32F0_files/CMSIS/core_cm0.h **** } CONTROL_Type;
 344:mculib3/STM32F0_files/CMSIS/core_cm0.h **** 
 345:mculib3/STM32F0_files/CMSIS/core_cm0.h **** /* CONTROL Register Definitions */
 346:mculib3/STM32F0_files/CMSIS/core_cm0.h **** #define CONTROL_SPSEL_Pos                   1U                                            /*!< CONT
 347:mculib3/STM32F0_files/CMSIS/core_cm0.h **** #define CONTROL_SPSEL_Msk                  (1UL << CONTROL_SPSEL_Pos)                     /*!< CONT
 348:mculib3/STM32F0_files/CMSIS/core_cm0.h **** 
 349:mculib3/STM32F0_files/CMSIS/core_cm0.h **** /*@} end of group CMSIS_CORE */
 350:mculib3/STM32F0_files/CMSIS/core_cm0.h **** 
 351:mculib3/STM32F0_files/CMSIS/core_cm0.h **** 
 352:mculib3/STM32F0_files/CMSIS/core_cm0.h **** /**
 353:mculib3/STM32F0_files/CMSIS/core_cm0.h ****   \ingroup    CMSIS_core_register
 354:mculib3/STM32F0_files/CMSIS/core_cm0.h ****   \defgroup   CMSIS_NVIC  Nested Vectored Interrupt Controller (NVIC)
 355:mculib3/STM32F0_files/CMSIS/core_cm0.h ****   \brief      Type definitions for the NVIC Registers
 356:mculib3/STM32F0_files/CMSIS/core_cm0.h ****   @{
 357:mculib3/STM32F0_files/CMSIS/core_cm0.h ****  */
 358:mculib3/STM32F0_files/CMSIS/core_cm0.h **** 
 359:mculib3/STM32F0_files/CMSIS/core_cm0.h **** /**
 360:mculib3/STM32F0_files/CMSIS/core_cm0.h ****   \brief  Structure type to access the Nested Vectored Interrupt Controller (NVIC).
 361:mculib3/STM32F0_files/CMSIS/core_cm0.h ****  */
 362:mculib3/STM32F0_files/CMSIS/core_cm0.h **** typedef struct
 363:mculib3/STM32F0_files/CMSIS/core_cm0.h **** {
 364:mculib3/STM32F0_files/CMSIS/core_cm0.h ****   __IOM uint32_t ISER[1U];               /*!< Offset: 0x000 (R/W)  Interrupt Set Enable Register */
 365:mculib3/STM32F0_files/CMSIS/core_cm0.h ****         uint32_t RESERVED0[31U];
 366:mculib3/STM32F0_files/CMSIS/core_cm0.h ****   __IOM uint32_t ICER[1U];               /*!< Offset: 0x080 (R/W)  Interrupt Clear Enable Register 
 367:mculib3/STM32F0_files/CMSIS/core_cm0.h ****         uint32_t RSERVED1[31U];
 368:mculib3/STM32F0_files/CMSIS/core_cm0.h ****   __IOM uint32_t ISPR[1U];               /*!< Offset: 0x100 (R/W)  Interrupt Set Pending Register *
 369:mculib3/STM32F0_files/CMSIS/core_cm0.h ****         uint32_t RESERVED2[31U];
 370:mculib3/STM32F0_files/CMSIS/core_cm0.h ****   __IOM uint32_t ICPR[1U];               /*!< Offset: 0x180 (R/W)  Interrupt Clear Pending Register
 371:mculib3/STM32F0_files/CMSIS/core_cm0.h ****         uint32_t RESERVED3[31U];
 372:mculib3/STM32F0_files/CMSIS/core_cm0.h ****         uint32_t RESERVED4[64U];
 373:mculib3/STM32F0_files/CMSIS/core_cm0.h ****   __IOM uint32_t IP[8U];                 /*!< Offset: 0x300 (R/W)  Interrupt Priority Register */
 374:mculib3/STM32F0_files/CMSIS/core_cm0.h **** }  NVIC_Type;
 375:mculib3/STM32F0_files/CMSIS/core_cm0.h **** 
 376:mculib3/STM32F0_files/CMSIS/core_cm0.h **** /*@} end of group CMSIS_NVIC */
ARM GAS  /tmp/cc03sYHg.s 			page 8


 377:mculib3/STM32F0_files/CMSIS/core_cm0.h **** 
 378:mculib3/STM32F0_files/CMSIS/core_cm0.h **** 
 379:mculib3/STM32F0_files/CMSIS/core_cm0.h **** /**
 380:mculib3/STM32F0_files/CMSIS/core_cm0.h ****   \ingroup  CMSIS_core_register
 381:mculib3/STM32F0_files/CMSIS/core_cm0.h ****   \defgroup CMSIS_SCB     System Control Block (SCB)
 382:mculib3/STM32F0_files/CMSIS/core_cm0.h ****   \brief    Type definitions for the System Control Block Registers
 383:mculib3/STM32F0_files/CMSIS/core_cm0.h ****   @{
 384:mculib3/STM32F0_files/CMSIS/core_cm0.h ****  */
 385:mculib3/STM32F0_files/CMSIS/core_cm0.h **** 
 386:mculib3/STM32F0_files/CMSIS/core_cm0.h **** /**
 387:mculib3/STM32F0_files/CMSIS/core_cm0.h ****   \brief  Structure type to access the System Control Block (SCB).
 388:mculib3/STM32F0_files/CMSIS/core_cm0.h ****  */
 389:mculib3/STM32F0_files/CMSIS/core_cm0.h **** typedef struct
 390:mculib3/STM32F0_files/CMSIS/core_cm0.h **** {
 391:mculib3/STM32F0_files/CMSIS/core_cm0.h ****   __IM  uint32_t CPUID;                  /*!< Offset: 0x000 (R/ )  CPUID Base Register */
 392:mculib3/STM32F0_files/CMSIS/core_cm0.h ****   __IOM uint32_t ICSR;                   /*!< Offset: 0x004 (R/W)  Interrupt Control and State Regi
 393:mculib3/STM32F0_files/CMSIS/core_cm0.h ****         uint32_t RESERVED0;
 394:mculib3/STM32F0_files/CMSIS/core_cm0.h ****   __IOM uint32_t AIRCR;                  /*!< Offset: 0x00C (R/W)  Application Interrupt and Reset 
 395:mculib3/STM32F0_files/CMSIS/core_cm0.h ****   __IOM uint32_t SCR;                    /*!< Offset: 0x010 (R/W)  System Control Register */
 396:mculib3/STM32F0_files/CMSIS/core_cm0.h ****   __IOM uint32_t CCR;                    /*!< Offset: 0x014 (R/W)  Configuration Control Register *
 397:mculib3/STM32F0_files/CMSIS/core_cm0.h ****         uint32_t RESERVED1;
 398:mculib3/STM32F0_files/CMSIS/core_cm0.h ****   __IOM uint32_t SHP[2U];                /*!< Offset: 0x01C (R/W)  System Handlers Priority Registe
 399:mculib3/STM32F0_files/CMSIS/core_cm0.h ****   __IOM uint32_t SHCSR;                  /*!< Offset: 0x024 (R/W)  System Handler Control and State
 400:mculib3/STM32F0_files/CMSIS/core_cm0.h **** } SCB_Type;
 401:mculib3/STM32F0_files/CMSIS/core_cm0.h **** 
 402:mculib3/STM32F0_files/CMSIS/core_cm0.h **** /* SCB CPUID Register Definitions */
 403:mculib3/STM32F0_files/CMSIS/core_cm0.h **** #define SCB_CPUID_IMPLEMENTER_Pos          24U                                            /*!< SCB 
 404:mculib3/STM32F0_files/CMSIS/core_cm0.h **** #define SCB_CPUID_IMPLEMENTER_Msk          (0xFFUL << SCB_CPUID_IMPLEMENTER_Pos)          /*!< SCB 
 405:mculib3/STM32F0_files/CMSIS/core_cm0.h **** 
 406:mculib3/STM32F0_files/CMSIS/core_cm0.h **** #define SCB_CPUID_VARIANT_Pos              20U                                            /*!< SCB 
 407:mculib3/STM32F0_files/CMSIS/core_cm0.h **** #define SCB_CPUID_VARIANT_Msk              (0xFUL << SCB_CPUID_VARIANT_Pos)               /*!< SCB 
 408:mculib3/STM32F0_files/CMSIS/core_cm0.h **** 
 409:mculib3/STM32F0_files/CMSIS/core_cm0.h **** #define SCB_CPUID_ARCHITECTURE_Pos         16U                                            /*!< SCB 
 410:mculib3/STM32F0_files/CMSIS/core_cm0.h **** #define SCB_CPUID_ARCHITECTURE_Msk         (0xFUL << SCB_CPUID_ARCHITECTURE_Pos)          /*!< SCB 
 411:mculib3/STM32F0_files/CMSIS/core_cm0.h **** 
 412:mculib3/STM32F0_files/CMSIS/core_cm0.h **** #define SCB_CPUID_PARTNO_Pos                4U                                            /*!< SCB 
 413:mculib3/STM32F0_files/CMSIS/core_cm0.h **** #define SCB_CPUID_PARTNO_Msk               (0xFFFUL << SCB_CPUID_PARTNO_Pos)              /*!< SCB 
 414:mculib3/STM32F0_files/CMSIS/core_cm0.h **** 
 415:mculib3/STM32F0_files/CMSIS/core_cm0.h **** #define SCB_CPUID_REVISION_Pos              0U                                            /*!< SCB 
 416:mculib3/STM32F0_files/CMSIS/core_cm0.h **** #define SCB_CPUID_REVISION_Msk             (0xFUL /*<< SCB_CPUID_REVISION_Pos*/)          /*!< SCB 
 417:mculib3/STM32F0_files/CMSIS/core_cm0.h **** 
 418:mculib3/STM32F0_files/CMSIS/core_cm0.h **** /* SCB Interrupt Control State Register Definitions */
 419:mculib3/STM32F0_files/CMSIS/core_cm0.h **** #define SCB_ICSR_NMIPENDSET_Pos            31U                                            /*!< SCB 
 420:mculib3/STM32F0_files/CMSIS/core_cm0.h **** #define SCB_ICSR_NMIPENDSET_Msk            (1UL << SCB_ICSR_NMIPENDSET_Pos)               /*!< SCB 
 421:mculib3/STM32F0_files/CMSIS/core_cm0.h **** 
 422:mculib3/STM32F0_files/CMSIS/core_cm0.h **** #define SCB_ICSR_PENDSVSET_Pos             28U                                            /*!< SCB 
 423:mculib3/STM32F0_files/CMSIS/core_cm0.h **** #define SCB_ICSR_PENDSVSET_Msk             (1UL << SCB_ICSR_PENDSVSET_Pos)                /*!< SCB 
 424:mculib3/STM32F0_files/CMSIS/core_cm0.h **** 
 425:mculib3/STM32F0_files/CMSIS/core_cm0.h **** #define SCB_ICSR_PENDSVCLR_Pos             27U                                            /*!< SCB 
 426:mculib3/STM32F0_files/CMSIS/core_cm0.h **** #define SCB_ICSR_PENDSVCLR_Msk             (1UL << SCB_ICSR_PENDSVCLR_Pos)                /*!< SCB 
 427:mculib3/STM32F0_files/CMSIS/core_cm0.h **** 
 428:mculib3/STM32F0_files/CMSIS/core_cm0.h **** #define SCB_ICSR_PENDSTSET_Pos             26U                                            /*!< SCB 
 429:mculib3/STM32F0_files/CMSIS/core_cm0.h **** #define SCB_ICSR_PENDSTSET_Msk             (1UL << SCB_ICSR_PENDSTSET_Pos)                /*!< SCB 
 430:mculib3/STM32F0_files/CMSIS/core_cm0.h **** 
 431:mculib3/STM32F0_files/CMSIS/core_cm0.h **** #define SCB_ICSR_PENDSTCLR_Pos             25U                                            /*!< SCB 
 432:mculib3/STM32F0_files/CMSIS/core_cm0.h **** #define SCB_ICSR_PENDSTCLR_Msk             (1UL << SCB_ICSR_PENDSTCLR_Pos)                /*!< SCB 
 433:mculib3/STM32F0_files/CMSIS/core_cm0.h **** 
ARM GAS  /tmp/cc03sYHg.s 			page 9


 434:mculib3/STM32F0_files/CMSIS/core_cm0.h **** #define SCB_ICSR_ISRPREEMPT_Pos            23U                                            /*!< SCB 
 435:mculib3/STM32F0_files/CMSIS/core_cm0.h **** #define SCB_ICSR_ISRPREEMPT_Msk            (1UL << SCB_ICSR_ISRPREEMPT_Pos)               /*!< SCB 
 436:mculib3/STM32F0_files/CMSIS/core_cm0.h **** 
 437:mculib3/STM32F0_files/CMSIS/core_cm0.h **** #define SCB_ICSR_ISRPENDING_Pos            22U                                            /*!< SCB 
 438:mculib3/STM32F0_files/CMSIS/core_cm0.h **** #define SCB_ICSR_ISRPENDING_Msk            (1UL << SCB_ICSR_ISRPENDING_Pos)               /*!< SCB 
 439:mculib3/STM32F0_files/CMSIS/core_cm0.h **** 
 440:mculib3/STM32F0_files/CMSIS/core_cm0.h **** #define SCB_ICSR_VECTPENDING_Pos           12U                                            /*!< SCB 
 441:mculib3/STM32F0_files/CMSIS/core_cm0.h **** #define SCB_ICSR_VECTPENDING_Msk           (0x1FFUL << SCB_ICSR_VECTPENDING_Pos)          /*!< SCB 
 442:mculib3/STM32F0_files/CMSIS/core_cm0.h **** 
 443:mculib3/STM32F0_files/CMSIS/core_cm0.h **** #define SCB_ICSR_VECTACTIVE_Pos             0U                                            /*!< SCB 
 444:mculib3/STM32F0_files/CMSIS/core_cm0.h **** #define SCB_ICSR_VECTACTIVE_Msk            (0x1FFUL /*<< SCB_ICSR_VECTACTIVE_Pos*/)       /*!< SCB 
 445:mculib3/STM32F0_files/CMSIS/core_cm0.h **** 
 446:mculib3/STM32F0_files/CMSIS/core_cm0.h **** /* SCB Application Interrupt and Reset Control Register Definitions */
 447:mculib3/STM32F0_files/CMSIS/core_cm0.h **** #define SCB_AIRCR_VECTKEY_Pos              16U                                            /*!< SCB 
 448:mculib3/STM32F0_files/CMSIS/core_cm0.h **** #define SCB_AIRCR_VECTKEY_Msk              (0xFFFFUL << SCB_AIRCR_VECTKEY_Pos)            /*!< SCB 
 449:mculib3/STM32F0_files/CMSIS/core_cm0.h **** 
 450:mculib3/STM32F0_files/CMSIS/core_cm0.h **** #define SCB_AIRCR_VECTKEYSTAT_Pos          16U                                            /*!< SCB 
 451:mculib3/STM32F0_files/CMSIS/core_cm0.h **** #define SCB_AIRCR_VECTKEYSTAT_Msk          (0xFFFFUL << SCB_AIRCR_VECTKEYSTAT_Pos)        /*!< SCB 
 452:mculib3/STM32F0_files/CMSIS/core_cm0.h **** 
 453:mculib3/STM32F0_files/CMSIS/core_cm0.h **** #define SCB_AIRCR_ENDIANESS_Pos            15U                                            /*!< SCB 
 454:mculib3/STM32F0_files/CMSIS/core_cm0.h **** #define SCB_AIRCR_ENDIANESS_Msk            (1UL << SCB_AIRCR_ENDIANESS_Pos)               /*!< SCB 
 455:mculib3/STM32F0_files/CMSIS/core_cm0.h **** 
 456:mculib3/STM32F0_files/CMSIS/core_cm0.h **** #define SCB_AIRCR_SYSRESETREQ_Pos           2U                                            /*!< SCB 
 457:mculib3/STM32F0_files/CMSIS/core_cm0.h **** #define SCB_AIRCR_SYSRESETREQ_Msk          (1UL << SCB_AIRCR_SYSRESETREQ_Pos)             /*!< SCB 
 458:mculib3/STM32F0_files/CMSIS/core_cm0.h **** 
 459:mculib3/STM32F0_files/CMSIS/core_cm0.h **** #define SCB_AIRCR_VECTCLRACTIVE_Pos         1U                                            /*!< SCB 
 460:mculib3/STM32F0_files/CMSIS/core_cm0.h **** #define SCB_AIRCR_VECTCLRACTIVE_Msk        (1UL << SCB_AIRCR_VECTCLRACTIVE_Pos)           /*!< SCB 
 461:mculib3/STM32F0_files/CMSIS/core_cm0.h **** 
 462:mculib3/STM32F0_files/CMSIS/core_cm0.h **** /* SCB System Control Register Definitions */
 463:mculib3/STM32F0_files/CMSIS/core_cm0.h **** #define SCB_SCR_SEVONPEND_Pos               4U                                            /*!< SCB 
 464:mculib3/STM32F0_files/CMSIS/core_cm0.h **** #define SCB_SCR_SEVONPEND_Msk              (1UL << SCB_SCR_SEVONPEND_Pos)                 /*!< SCB 
 465:mculib3/STM32F0_files/CMSIS/core_cm0.h **** 
 466:mculib3/STM32F0_files/CMSIS/core_cm0.h **** #define SCB_SCR_SLEEPDEEP_Pos               2U                                            /*!< SCB 
 467:mculib3/STM32F0_files/CMSIS/core_cm0.h **** #define SCB_SCR_SLEEPDEEP_Msk              (1UL << SCB_SCR_SLEEPDEEP_Pos)                 /*!< SCB 
 468:mculib3/STM32F0_files/CMSIS/core_cm0.h **** 
 469:mculib3/STM32F0_files/CMSIS/core_cm0.h **** #define SCB_SCR_SLEEPONEXIT_Pos             1U                                            /*!< SCB 
 470:mculib3/STM32F0_files/CMSIS/core_cm0.h **** #define SCB_SCR_SLEEPONEXIT_Msk            (1UL << SCB_SCR_SLEEPONEXIT_Pos)               /*!< SCB 
 471:mculib3/STM32F0_files/CMSIS/core_cm0.h **** 
 472:mculib3/STM32F0_files/CMSIS/core_cm0.h **** /* SCB Configuration Control Register Definitions */
 473:mculib3/STM32F0_files/CMSIS/core_cm0.h **** #define SCB_CCR_STKALIGN_Pos                9U                                            /*!< SCB 
 474:mculib3/STM32F0_files/CMSIS/core_cm0.h **** #define SCB_CCR_STKALIGN_Msk               (1UL << SCB_CCR_STKALIGN_Pos)                  /*!< SCB 
 475:mculib3/STM32F0_files/CMSIS/core_cm0.h **** 
 476:mculib3/STM32F0_files/CMSIS/core_cm0.h **** #define SCB_CCR_UNALIGN_TRP_Pos             3U                                            /*!< SCB 
 477:mculib3/STM32F0_files/CMSIS/core_cm0.h **** #define SCB_CCR_UNALIGN_TRP_Msk            (1UL << SCB_CCR_UNALIGN_TRP_Pos)               /*!< SCB 
 478:mculib3/STM32F0_files/CMSIS/core_cm0.h **** 
 479:mculib3/STM32F0_files/CMSIS/core_cm0.h **** /* SCB System Handler Control and State Register Definitions */
 480:mculib3/STM32F0_files/CMSIS/core_cm0.h **** #define SCB_SHCSR_SVCALLPENDED_Pos         15U                                            /*!< SCB 
 481:mculib3/STM32F0_files/CMSIS/core_cm0.h **** #define SCB_SHCSR_SVCALLPENDED_Msk         (1UL << SCB_SHCSR_SVCALLPENDED_Pos)            /*!< SCB 
 482:mculib3/STM32F0_files/CMSIS/core_cm0.h **** 
 483:mculib3/STM32F0_files/CMSIS/core_cm0.h **** /*@} end of group CMSIS_SCB */
 484:mculib3/STM32F0_files/CMSIS/core_cm0.h **** 
 485:mculib3/STM32F0_files/CMSIS/core_cm0.h **** 
 486:mculib3/STM32F0_files/CMSIS/core_cm0.h **** /**
 487:mculib3/STM32F0_files/CMSIS/core_cm0.h ****   \ingroup  CMSIS_core_register
 488:mculib3/STM32F0_files/CMSIS/core_cm0.h ****   \defgroup CMSIS_SysTick     System Tick Timer (SysTick)
 489:mculib3/STM32F0_files/CMSIS/core_cm0.h ****   \brief    Type definitions for the System Timer Registers.
 490:mculib3/STM32F0_files/CMSIS/core_cm0.h ****   @{
ARM GAS  /tmp/cc03sYHg.s 			page 10


 491:mculib3/STM32F0_files/CMSIS/core_cm0.h ****  */
 492:mculib3/STM32F0_files/CMSIS/core_cm0.h **** 
 493:mculib3/STM32F0_files/CMSIS/core_cm0.h **** /**
 494:mculib3/STM32F0_files/CMSIS/core_cm0.h ****   \brief  Structure type to access the System Timer (SysTick).
 495:mculib3/STM32F0_files/CMSIS/core_cm0.h ****  */
 496:mculib3/STM32F0_files/CMSIS/core_cm0.h **** typedef struct
 497:mculib3/STM32F0_files/CMSIS/core_cm0.h **** {
 498:mculib3/STM32F0_files/CMSIS/core_cm0.h ****   __IOM uint32_t CTRL;                   /*!< Offset: 0x000 (R/W)  SysTick Control and Status Regis
 499:mculib3/STM32F0_files/CMSIS/core_cm0.h ****   __IOM uint32_t LOAD;                   /*!< Offset: 0x004 (R/W)  SysTick Reload Value Register */
 500:mculib3/STM32F0_files/CMSIS/core_cm0.h ****   __IOM uint32_t VAL;                    /*!< Offset: 0x008 (R/W)  SysTick Current Value Register *
 501:mculib3/STM32F0_files/CMSIS/core_cm0.h ****   __IM  uint32_t CALIB;                  /*!< Offset: 0x00C (R/ )  SysTick Calibration Register */
 502:mculib3/STM32F0_files/CMSIS/core_cm0.h **** } SysTick_Type;
 503:mculib3/STM32F0_files/CMSIS/core_cm0.h **** 
 504:mculib3/STM32F0_files/CMSIS/core_cm0.h **** /* SysTick Control / Status Register Definitions */
 505:mculib3/STM32F0_files/CMSIS/core_cm0.h **** #define SysTick_CTRL_COUNTFLAG_Pos         16U                                            /*!< SysT
 506:mculib3/STM32F0_files/CMSIS/core_cm0.h **** #define SysTick_CTRL_COUNTFLAG_Msk         (1UL << SysTick_CTRL_COUNTFLAG_Pos)            /*!< SysT
 507:mculib3/STM32F0_files/CMSIS/core_cm0.h **** 
 508:mculib3/STM32F0_files/CMSIS/core_cm0.h **** #define SysTick_CTRL_CLKSOURCE_Pos          2U                                            /*!< SysT
 509:mculib3/STM32F0_files/CMSIS/core_cm0.h **** #define SysTick_CTRL_CLKSOURCE_Msk         (1UL << SysTick_CTRL_CLKSOURCE_Pos)            /*!< SysT
 510:mculib3/STM32F0_files/CMSIS/core_cm0.h **** 
 511:mculib3/STM32F0_files/CMSIS/core_cm0.h **** #define SysTick_CTRL_TICKINT_Pos            1U                                            /*!< SysT
 512:mculib3/STM32F0_files/CMSIS/core_cm0.h **** #define SysTick_CTRL_TICKINT_Msk           (1UL << SysTick_CTRL_TICKINT_Pos)              /*!< SysT
 513:mculib3/STM32F0_files/CMSIS/core_cm0.h **** 
 514:mculib3/STM32F0_files/CMSIS/core_cm0.h **** #define SysTick_CTRL_ENABLE_Pos             0U                                            /*!< SysT
 515:mculib3/STM32F0_files/CMSIS/core_cm0.h **** #define SysTick_CTRL_ENABLE_Msk            (1UL /*<< SysTick_CTRL_ENABLE_Pos*/)           /*!< SysT
 516:mculib3/STM32F0_files/CMSIS/core_cm0.h **** 
 517:mculib3/STM32F0_files/CMSIS/core_cm0.h **** /* SysTick Reload Register Definitions */
 518:mculib3/STM32F0_files/CMSIS/core_cm0.h **** #define SysTick_LOAD_RELOAD_Pos             0U                                            /*!< SysT
 519:mculib3/STM32F0_files/CMSIS/core_cm0.h **** #define SysTick_LOAD_RELOAD_Msk            (0xFFFFFFUL /*<< SysTick_LOAD_RELOAD_Pos*/)    /*!< SysT
 520:mculib3/STM32F0_files/CMSIS/core_cm0.h **** 
 521:mculib3/STM32F0_files/CMSIS/core_cm0.h **** /* SysTick Current Register Definitions */
 522:mculib3/STM32F0_files/CMSIS/core_cm0.h **** #define SysTick_VAL_CURRENT_Pos             0U                                            /*!< SysT
 523:mculib3/STM32F0_files/CMSIS/core_cm0.h **** #define SysTick_VAL_CURRENT_Msk            (0xFFFFFFUL /*<< SysTick_VAL_CURRENT_Pos*/)    /*!< SysT
 524:mculib3/STM32F0_files/CMSIS/core_cm0.h **** 
 525:mculib3/STM32F0_files/CMSIS/core_cm0.h **** /* SysTick Calibration Register Definitions */
 526:mculib3/STM32F0_files/CMSIS/core_cm0.h **** #define SysTick_CALIB_NOREF_Pos            31U                                            /*!< SysT
 527:mculib3/STM32F0_files/CMSIS/core_cm0.h **** #define SysTick_CALIB_NOREF_Msk            (1UL << SysTick_CALIB_NOREF_Pos)               /*!< SysT
 528:mculib3/STM32F0_files/CMSIS/core_cm0.h **** 
 529:mculib3/STM32F0_files/CMSIS/core_cm0.h **** #define SysTick_CALIB_SKEW_Pos             30U                                            /*!< SysT
 530:mculib3/STM32F0_files/CMSIS/core_cm0.h **** #define SysTick_CALIB_SKEW_Msk             (1UL << SysTick_CALIB_SKEW_Pos)                /*!< SysT
 531:mculib3/STM32F0_files/CMSIS/core_cm0.h **** 
 532:mculib3/STM32F0_files/CMSIS/core_cm0.h **** #define SysTick_CALIB_TENMS_Pos             0U                                            /*!< SysT
 533:mculib3/STM32F0_files/CMSIS/core_cm0.h **** #define SysTick_CALIB_TENMS_Msk            (0xFFFFFFUL /*<< SysTick_CALIB_TENMS_Pos*/)    /*!< SysT
 534:mculib3/STM32F0_files/CMSIS/core_cm0.h **** 
 535:mculib3/STM32F0_files/CMSIS/core_cm0.h **** /*@} end of group CMSIS_SysTick */
 536:mculib3/STM32F0_files/CMSIS/core_cm0.h **** 
 537:mculib3/STM32F0_files/CMSIS/core_cm0.h **** 
 538:mculib3/STM32F0_files/CMSIS/core_cm0.h **** /**
 539:mculib3/STM32F0_files/CMSIS/core_cm0.h ****   \ingroup  CMSIS_core_register
 540:mculib3/STM32F0_files/CMSIS/core_cm0.h ****   \defgroup CMSIS_CoreDebug       Core Debug Registers (CoreDebug)
 541:mculib3/STM32F0_files/CMSIS/core_cm0.h ****   \brief    Cortex-M0 Core Debug Registers (DCB registers, SHCSR, and DFSR) are only accessible ove
 542:mculib3/STM32F0_files/CMSIS/core_cm0.h ****             Therefore they are not covered by the Cortex-M0 header file.
 543:mculib3/STM32F0_files/CMSIS/core_cm0.h ****   @{
 544:mculib3/STM32F0_files/CMSIS/core_cm0.h ****  */
 545:mculib3/STM32F0_files/CMSIS/core_cm0.h **** /*@} end of group CMSIS_CoreDebug */
 546:mculib3/STM32F0_files/CMSIS/core_cm0.h **** 
 547:mculib3/STM32F0_files/CMSIS/core_cm0.h **** 
ARM GAS  /tmp/cc03sYHg.s 			page 11


 548:mculib3/STM32F0_files/CMSIS/core_cm0.h **** /**
 549:mculib3/STM32F0_files/CMSIS/core_cm0.h ****   \ingroup    CMSIS_core_register
 550:mculib3/STM32F0_files/CMSIS/core_cm0.h ****   \defgroup   CMSIS_core_bitfield     Core register bit field macros
 551:mculib3/STM32F0_files/CMSIS/core_cm0.h ****   \brief      Macros for use with bit field definitions (xxx_Pos, xxx_Msk).
 552:mculib3/STM32F0_files/CMSIS/core_cm0.h ****   @{
 553:mculib3/STM32F0_files/CMSIS/core_cm0.h ****  */
 554:mculib3/STM32F0_files/CMSIS/core_cm0.h **** 
 555:mculib3/STM32F0_files/CMSIS/core_cm0.h **** /**
 556:mculib3/STM32F0_files/CMSIS/core_cm0.h ****   \brief   Mask and shift a bit field value for use in a register bit range.
 557:mculib3/STM32F0_files/CMSIS/core_cm0.h ****   \param[in] field  Name of the register bit field.
 558:mculib3/STM32F0_files/CMSIS/core_cm0.h ****   \param[in] value  Value of the bit field.
 559:mculib3/STM32F0_files/CMSIS/core_cm0.h ****   \return           Masked and shifted value.
 560:mculib3/STM32F0_files/CMSIS/core_cm0.h **** */
 561:mculib3/STM32F0_files/CMSIS/core_cm0.h **** #define _VAL2FLD(field, value)    ((value << field ## _Pos) & field ## _Msk)
 562:mculib3/STM32F0_files/CMSIS/core_cm0.h **** 
 563:mculib3/STM32F0_files/CMSIS/core_cm0.h **** /**
 564:mculib3/STM32F0_files/CMSIS/core_cm0.h ****   \brief     Mask and shift a register value to extract a bit filed value.
 565:mculib3/STM32F0_files/CMSIS/core_cm0.h ****   \param[in] field  Name of the register bit field.
 566:mculib3/STM32F0_files/CMSIS/core_cm0.h ****   \param[in] value  Value of register.
 567:mculib3/STM32F0_files/CMSIS/core_cm0.h ****   \return           Masked and shifted bit field value.
 568:mculib3/STM32F0_files/CMSIS/core_cm0.h **** */
 569:mculib3/STM32F0_files/CMSIS/core_cm0.h **** #define _FLD2VAL(field, value)    ((value & field ## _Msk) >> field ## _Pos)
 570:mculib3/STM32F0_files/CMSIS/core_cm0.h **** 
 571:mculib3/STM32F0_files/CMSIS/core_cm0.h **** /*@} end of group CMSIS_core_bitfield */
 572:mculib3/STM32F0_files/CMSIS/core_cm0.h **** 
 573:mculib3/STM32F0_files/CMSIS/core_cm0.h **** 
 574:mculib3/STM32F0_files/CMSIS/core_cm0.h **** /**
 575:mculib3/STM32F0_files/CMSIS/core_cm0.h ****   \ingroup    CMSIS_core_register
 576:mculib3/STM32F0_files/CMSIS/core_cm0.h ****   \defgroup   CMSIS_core_base     Core Definitions
 577:mculib3/STM32F0_files/CMSIS/core_cm0.h ****   \brief      Definitions for base addresses, unions, and structures.
 578:mculib3/STM32F0_files/CMSIS/core_cm0.h ****   @{
 579:mculib3/STM32F0_files/CMSIS/core_cm0.h ****  */
 580:mculib3/STM32F0_files/CMSIS/core_cm0.h **** 
 581:mculib3/STM32F0_files/CMSIS/core_cm0.h **** /* Memory mapping of Cortex-M0 Hardware */
 582:mculib3/STM32F0_files/CMSIS/core_cm0.h **** #define SCS_BASE            (0xE000E000UL)                            /*!< System Control Space Bas
 583:mculib3/STM32F0_files/CMSIS/core_cm0.h **** #define SysTick_BASE        (SCS_BASE +  0x0010UL)                    /*!< SysTick Base Address */
 584:mculib3/STM32F0_files/CMSIS/core_cm0.h **** #define NVIC_BASE           (SCS_BASE +  0x0100UL)                    /*!< NVIC Base Address */
 585:mculib3/STM32F0_files/CMSIS/core_cm0.h **** #define SCB_BASE            (SCS_BASE +  0x0D00UL)                    /*!< System Control Block Bas
 586:mculib3/STM32F0_files/CMSIS/core_cm0.h **** 
 587:mculib3/STM32F0_files/CMSIS/core_cm0.h **** #define SCB                 ((SCB_Type       *)     SCB_BASE      )   /*!< SCB configuration struct
 588:mculib3/STM32F0_files/CMSIS/core_cm0.h **** #define SysTick             ((SysTick_Type   *)     SysTick_BASE  )   /*!< SysTick configuration st
 589:mculib3/STM32F0_files/CMSIS/core_cm0.h **** #define NVIC                ((NVIC_Type      *)     NVIC_BASE     )   /*!< NVIC configuration struc
 590:mculib3/STM32F0_files/CMSIS/core_cm0.h **** 
 591:mculib3/STM32F0_files/CMSIS/core_cm0.h **** 
 592:mculib3/STM32F0_files/CMSIS/core_cm0.h **** /*@} */
 593:mculib3/STM32F0_files/CMSIS/core_cm0.h **** 
 594:mculib3/STM32F0_files/CMSIS/core_cm0.h **** 
 595:mculib3/STM32F0_files/CMSIS/core_cm0.h **** 
 596:mculib3/STM32F0_files/CMSIS/core_cm0.h **** /*******************************************************************************
 597:mculib3/STM32F0_files/CMSIS/core_cm0.h ****  *                Hardware Abstraction Layer
 598:mculib3/STM32F0_files/CMSIS/core_cm0.h ****   Core Function Interface contains:
 599:mculib3/STM32F0_files/CMSIS/core_cm0.h ****   - Core NVIC Functions
 600:mculib3/STM32F0_files/CMSIS/core_cm0.h ****   - Core SysTick Functions
 601:mculib3/STM32F0_files/CMSIS/core_cm0.h ****   - Core Register Access Functions
 602:mculib3/STM32F0_files/CMSIS/core_cm0.h ****  ******************************************************************************/
 603:mculib3/STM32F0_files/CMSIS/core_cm0.h **** /**
 604:mculib3/STM32F0_files/CMSIS/core_cm0.h ****   \defgroup CMSIS_Core_FunctionInterface Functions and Instructions Reference
ARM GAS  /tmp/cc03sYHg.s 			page 12


 605:mculib3/STM32F0_files/CMSIS/core_cm0.h **** */
 606:mculib3/STM32F0_files/CMSIS/core_cm0.h **** 
 607:mculib3/STM32F0_files/CMSIS/core_cm0.h **** 
 608:mculib3/STM32F0_files/CMSIS/core_cm0.h **** 
 609:mculib3/STM32F0_files/CMSIS/core_cm0.h **** /* ##########################   NVIC functions  #################################### */
 610:mculib3/STM32F0_files/CMSIS/core_cm0.h **** /**
 611:mculib3/STM32F0_files/CMSIS/core_cm0.h ****   \ingroup  CMSIS_Core_FunctionInterface
 612:mculib3/STM32F0_files/CMSIS/core_cm0.h ****   \defgroup CMSIS_Core_NVICFunctions NVIC Functions
 613:mculib3/STM32F0_files/CMSIS/core_cm0.h ****   \brief    Functions that manage interrupts and exceptions via the NVIC.
 614:mculib3/STM32F0_files/CMSIS/core_cm0.h ****   @{
 615:mculib3/STM32F0_files/CMSIS/core_cm0.h ****  */
 616:mculib3/STM32F0_files/CMSIS/core_cm0.h **** 
 617:mculib3/STM32F0_files/CMSIS/core_cm0.h **** /* Interrupt Priorities are WORD accessible only under ARMv6M                   */
 618:mculib3/STM32F0_files/CMSIS/core_cm0.h **** /* The following MACROS handle generation of the register offset and byte masks */
 619:mculib3/STM32F0_files/CMSIS/core_cm0.h **** #define _BIT_SHIFT(IRQn)         (  ((((uint32_t)(int32_t)(IRQn))         )      &  0x03UL) * 8UL)
 620:mculib3/STM32F0_files/CMSIS/core_cm0.h **** #define _SHP_IDX(IRQn)           ( (((((uint32_t)(int32_t)(IRQn)) & 0x0FUL)-8UL) >>    2UL)      )
 621:mculib3/STM32F0_files/CMSIS/core_cm0.h **** #define _IP_IDX(IRQn)            (   (((uint32_t)(int32_t)(IRQn))                >>    2UL)      )
 622:mculib3/STM32F0_files/CMSIS/core_cm0.h **** 
 623:mculib3/STM32F0_files/CMSIS/core_cm0.h **** 
 624:mculib3/STM32F0_files/CMSIS/core_cm0.h **** /**
 625:mculib3/STM32F0_files/CMSIS/core_cm0.h ****   \brief   Enable External Interrupt
 626:mculib3/STM32F0_files/CMSIS/core_cm0.h ****   \details Enables a device-specific interrupt in the NVIC interrupt controller.
 627:mculib3/STM32F0_files/CMSIS/core_cm0.h ****   \param [in]      IRQn  External interrupt number. Value cannot be negative.
 628:mculib3/STM32F0_files/CMSIS/core_cm0.h ****  */
 629:mculib3/STM32F0_files/CMSIS/core_cm0.h **** __STATIC_INLINE void NVIC_EnableIRQ(IRQn_Type IRQn)
 630:mculib3/STM32F0_files/CMSIS/core_cm0.h **** {
  25              		.loc 1 630 0
  26              		.cfi_startproc
  27              		@ args = 0, pretend = 0, frame = 8
  28              		@ frame_needed = 1, uses_anonymous_args = 0
  29 0000 80B5     		push	{r7, lr}
  30              	.LCFI0:
  31              		.cfi_def_cfa_offset 8
  32              		.cfi_offset 7, -8
  33              		.cfi_offset 14, -4
  34 0002 82B0     		sub	sp, sp, #8
  35              	.LCFI1:
  36              		.cfi_def_cfa_offset 16
  37 0004 00AF     		add	r7, sp, #0
  38              	.LCFI2:
  39              		.cfi_def_cfa_register 7
  40 0006 0200     		movs	r2, r0
  41 0008 FB1D     		adds	r3, r7, #7
  42 000a 1A70     		strb	r2, [r3]
 631:mculib3/STM32F0_files/CMSIS/core_cm0.h ****   NVIC->ISER[0U] = (uint32_t)(1UL << (((uint32_t)(int32_t)IRQn) & 0x1FUL));
  43              		.loc 1 631 0
  44 000c FB1D     		adds	r3, r7, #7
  45 000e 1B78     		ldrb	r3, [r3]
  46 0010 5BB2     		sxtb	r3, r3
  47 0012 1F22     		movs	r2, #31
  48 0014 1A40     		ands	r2, r3
  49 0016 044B     		ldr	r3, .L2
  50 0018 0121     		movs	r1, #1
  51 001a 9140     		lsls	r1, r1, r2
  52 001c 0A00     		movs	r2, r1
  53 001e 1A60     		str	r2, [r3]
 632:mculib3/STM32F0_files/CMSIS/core_cm0.h **** }
ARM GAS  /tmp/cc03sYHg.s 			page 13


  54              		.loc 1 632 0
  55 0020 C046     		nop
  56 0022 BD46     		mov	sp, r7
  57 0024 02B0     		add	sp, sp, #8
  58              		@ sp needed
  59 0026 80BD     		pop	{r7, pc}
  60              	.L3:
  61              		.align	2
  62              	.L2:
  63 0028 00E100E0 		.word	-536813312
  64              		.cfi_endproc
  65              	.LFE45:
  67              		.section	.text._ZN3mcu3RCC3setENS_8RCC_bits4CFGR12AHBprescalerE,"axG",%progbits,_ZN3mcu3RCC3setENS
  68              		.align	1
  69              		.weak	_ZN3mcu3RCC3setENS_8RCC_bits4CFGR12AHBprescalerE
  70              		.syntax unified
  71              		.code	16
  72              		.thumb_func
  73              		.fpu softvfp
  75              	_ZN3mcu3RCC3setENS_8RCC_bits4CFGR12AHBprescalerE:
  76              	.LFB57:
  77              		.file 2 "mculib3/src/periph/rcc_f0.h"
   1:mculib3/src/periph/rcc_f0.h **** #pragma once
   2:mculib3/src/periph/rcc_f0.h **** 
   3:mculib3/src/periph/rcc_f0.h **** #include "bits_rcc_f0.h"
   4:mculib3/src/periph/rcc_f0.h **** 
   5:mculib3/src/periph/rcc_f0.h **** namespace mcu {
   6:mculib3/src/periph/rcc_f0.h **** 
   7:mculib3/src/periph/rcc_f0.h **** class RCC {
   8:mculib3/src/periph/rcc_f0.h **** 	volatile RCC_bits::CR      CR;         // clock control register,                offset: 0x00
   9:mculib3/src/periph/rcc_f0.h **** 	volatile RCC_bits::CFGR    CFGR;       // clock configuration register,          offset: 0x04
  10:mculib3/src/periph/rcc_f0.h **** 	volatile uint32_t          CIR;        // clock interrupt register,              offset: 0x08
  11:mculib3/src/periph/rcc_f0.h **** 	volatile uint32_t          APB2RSTR;   // APB2 peripheral reset register,        offset: 0x0C
  12:mculib3/src/periph/rcc_f0.h **** 	volatile uint32_t          APB1RSTR;   // APB1 peripheral reset register,        offset: 0x10
  13:mculib3/src/periph/rcc_f0.h **** 	volatile RCC_bits::AHBENR  AHBENR;     // AHB peripheral clock register,         offset: 0x14
  14:mculib3/src/periph/rcc_f0.h **** 	volatile RCC_bits::APB2ENR APB2ENR;    // APB2 peripheral clock enable register, offset: 0x18
  15:mculib3/src/periph/rcc_f0.h **** 	volatile RCC_bits::APB1ENR APB1ENR;    // APB1 peripheral clock enable register, offset: 0x1C
  16:mculib3/src/periph/rcc_f0.h **** 	volatile uint32_t          BDCR;       // Backup domain control register,        offset: 0x20
  17:mculib3/src/periph/rcc_f0.h **** 	volatile uint32_t          CSR;        // clock control & status register,       offset: 0x24
  18:mculib3/src/periph/rcc_f0.h **** 	volatile uint32_t          AHBRSTR;    // AHB peripheral reset register,         offset: 0x28
  19:mculib3/src/periph/rcc_f0.h **** 	volatile uint32_t          CFGR2;      // clock configuration register 2,        offset: 0x2C
  20:mculib3/src/periph/rcc_f0.h **** 	volatile uint32_t          CFGR3;      // clock configuration register 3,        offset: 0x30
  21:mculib3/src/periph/rcc_f0.h **** 	volatile uint32_t          CR2;        // clock control register 2,              offset: 0x34
  22:mculib3/src/periph/rcc_f0.h **** 
  23:mculib3/src/periph/rcc_f0.h **** 
  24:mculib3/src/periph/rcc_f0.h **** public:
  25:mculib3/src/periph/rcc_f0.h **** 	using CMSIS_type    = RCC_TypeDef;
  26:mculib3/src/periph/rcc_f0.h **** 	using AHBprescaler  = RCC_bits::CFGR::AHBprescaler;
  27:mculib3/src/periph/rcc_f0.h **** 	using APBprescaler  = RCC_bits::CFGR::APBprescaler;
  28:mculib3/src/periph/rcc_f0.h **** 	using SystemClock   = RCC_bits::CFGR::SystemClock;
  29:mculib3/src/periph/rcc_f0.h **** 	using PLLsource     = RCC_bits::CFGR::PLLsource;
  30:mculib3/src/periph/rcc_f0.h **** 	using PLLmultiplier = RCC_bits::CFGR::PLLmultiplier;
  31:mculib3/src/periph/rcc_f0.h **** 
  32:mculib3/src/periph/rcc_f0.h **** 	auto& like_CMSIS() { return *reinterpret_cast<CMSIS_type*>(this); }
  33:mculib3/src/periph/rcc_f0.h **** 
  34:mculib3/src/periph/rcc_f0.h **** 	RCC& set (AHBprescaler  v) { CFGR.HPRE   = v; return *this; }
  78              		.loc 2 34 0
ARM GAS  /tmp/cc03sYHg.s 			page 14


  79              		.cfi_startproc
  80              		@ args = 0, pretend = 0, frame = 8
  81              		@ frame_needed = 1, uses_anonymous_args = 0
  82 0000 80B5     		push	{r7, lr}
  83              	.LCFI3:
  84              		.cfi_def_cfa_offset 8
  85              		.cfi_offset 7, -8
  86              		.cfi_offset 14, -4
  87 0002 82B0     		sub	sp, sp, #8
  88              	.LCFI4:
  89              		.cfi_def_cfa_offset 16
  90 0004 00AF     		add	r7, sp, #0
  91              	.LCFI5:
  92              		.cfi_def_cfa_register 7
  93 0006 7860     		str	r0, [r7, #4]
  94 0008 0A00     		movs	r2, r1
  95 000a FB1C     		adds	r3, r7, #3
  96 000c 1A70     		strb	r2, [r3]
  97              		.loc 2 34 0
  98 000e FB1C     		adds	r3, r7, #3
  99 0010 1B78     		ldrb	r3, [r3]
 100 0012 0F22     		movs	r2, #15
 101 0014 1340     		ands	r3, r2
 102 0016 DAB2     		uxtb	r2, r3
 103 0018 7B68     		ldr	r3, [r7, #4]
 104 001a 0F21     		movs	r1, #15
 105 001c 0A40     		ands	r2, r1
 106 001e 1201     		lsls	r2, r2, #4
 107 0020 5968     		ldr	r1, [r3, #4]
 108 0022 F020     		movs	r0, #240
 109 0024 8143     		bics	r1, r0
 110 0026 0A43     		orrs	r2, r1
 111 0028 5A60     		str	r2, [r3, #4]
 112 002a 7B68     		ldr	r3, [r7, #4]
 113 002c 1800     		movs	r0, r3
 114 002e BD46     		mov	sp, r7
 115 0030 02B0     		add	sp, sp, #8
 116              		@ sp needed
 117 0032 80BD     		pop	{r7, pc}
 118              		.cfi_endproc
 119              	.LFE57:
 121              		.section	.text._ZN3mcu3RCC3setENS_8RCC_bits4CFGR12APBprescalerE,"axG",%progbits,_ZN3mcu3RCC3setENS
 122              		.align	1
 123              		.weak	_ZN3mcu3RCC3setENS_8RCC_bits4CFGR12APBprescalerE
 124              		.syntax unified
 125              		.code	16
 126              		.thumb_func
 127              		.fpu softvfp
 129              	_ZN3mcu3RCC3setENS_8RCC_bits4CFGR12APBprescalerE:
 130              	.LFB58:
  35:mculib3/src/periph/rcc_f0.h **** 	RCC& set (APBprescaler  v) { CFGR.PPRE   = v; return *this; }
 131              		.loc 2 35 0
 132              		.cfi_startproc
 133              		@ args = 0, pretend = 0, frame = 8
 134              		@ frame_needed = 1, uses_anonymous_args = 0
 135 0000 80B5     		push	{r7, lr}
 136              	.LCFI6:
ARM GAS  /tmp/cc03sYHg.s 			page 15


 137              		.cfi_def_cfa_offset 8
 138              		.cfi_offset 7, -8
 139              		.cfi_offset 14, -4
 140 0002 82B0     		sub	sp, sp, #8
 141              	.LCFI7:
 142              		.cfi_def_cfa_offset 16
 143 0004 00AF     		add	r7, sp, #0
 144              	.LCFI8:
 145              		.cfi_def_cfa_register 7
 146 0006 7860     		str	r0, [r7, #4]
 147 0008 0A00     		movs	r2, r1
 148 000a FB1C     		adds	r3, r7, #3
 149 000c 1A70     		strb	r2, [r3]
 150              		.loc 2 35 0
 151 000e FB1C     		adds	r3, r7, #3
 152 0010 1B78     		ldrb	r3, [r3]
 153 0012 0722     		movs	r2, #7
 154 0014 1340     		ands	r3, r2
 155 0016 DAB2     		uxtb	r2, r3
 156 0018 7B68     		ldr	r3, [r7, #4]
 157 001a 0721     		movs	r1, #7
 158 001c 0A40     		ands	r2, r1
 159 001e 1202     		lsls	r2, r2, #8
 160 0020 5968     		ldr	r1, [r3, #4]
 161 0022 0448     		ldr	r0, .L8
 162 0024 0140     		ands	r1, r0
 163 0026 0A43     		orrs	r2, r1
 164 0028 5A60     		str	r2, [r3, #4]
 165 002a 7B68     		ldr	r3, [r7, #4]
 166 002c 1800     		movs	r0, r3
 167 002e BD46     		mov	sp, r7
 168 0030 02B0     		add	sp, sp, #8
 169              		@ sp needed
 170 0032 80BD     		pop	{r7, pc}
 171              	.L9:
 172              		.align	2
 173              	.L8:
 174 0034 FFF8FFFF 		.word	-1793
 175              		.cfi_endproc
 176              	.LFE58:
 178              		.section	.text._ZN3mcu3RCC3setENS_8RCC_bits4CFGR11SystemClockE,"axG",%progbits,_ZN3mcu3RCC3setENS_
 179              		.align	1
 180              		.weak	_ZN3mcu3RCC3setENS_8RCC_bits4CFGR11SystemClockE
 181              		.syntax unified
 182              		.code	16
 183              		.thumb_func
 184              		.fpu softvfp
 186              	_ZN3mcu3RCC3setENS_8RCC_bits4CFGR11SystemClockE:
 187              	.LFB59:
  36:mculib3/src/periph/rcc_f0.h **** 	RCC& set (SystemClock   v) { CFGR.SW     = v; return *this; }
 188              		.loc 2 36 0
 189              		.cfi_startproc
 190              		@ args = 0, pretend = 0, frame = 8
 191              		@ frame_needed = 1, uses_anonymous_args = 0
 192 0000 80B5     		push	{r7, lr}
 193              	.LCFI9:
 194              		.cfi_def_cfa_offset 8
ARM GAS  /tmp/cc03sYHg.s 			page 16


 195              		.cfi_offset 7, -8
 196              		.cfi_offset 14, -4
 197 0002 82B0     		sub	sp, sp, #8
 198              	.LCFI10:
 199              		.cfi_def_cfa_offset 16
 200 0004 00AF     		add	r7, sp, #0
 201              	.LCFI11:
 202              		.cfi_def_cfa_register 7
 203 0006 7860     		str	r0, [r7, #4]
 204 0008 0A00     		movs	r2, r1
 205 000a FB1C     		adds	r3, r7, #3
 206 000c 1A70     		strb	r2, [r3]
 207              		.loc 2 36 0
 208 000e FB1C     		adds	r3, r7, #3
 209 0010 1B78     		ldrb	r3, [r3]
 210 0012 0322     		movs	r2, #3
 211 0014 1340     		ands	r3, r2
 212 0016 DAB2     		uxtb	r2, r3
 213 0018 7B68     		ldr	r3, [r7, #4]
 214 001a 0321     		movs	r1, #3
 215 001c 0A40     		ands	r2, r1
 216 001e 5968     		ldr	r1, [r3, #4]
 217 0020 0320     		movs	r0, #3
 218 0022 8143     		bics	r1, r0
 219 0024 0A43     		orrs	r2, r1
 220 0026 5A60     		str	r2, [r3, #4]
 221 0028 7B68     		ldr	r3, [r7, #4]
 222 002a 1800     		movs	r0, r3
 223 002c BD46     		mov	sp, r7
 224 002e 02B0     		add	sp, sp, #8
 225              		@ sp needed
 226 0030 80BD     		pop	{r7, pc}
 227              		.cfi_endproc
 228              	.LFE59:
 230              		.section	.text._ZN3mcu3RCC3setENS_8RCC_bits4CFGR9PLLsourceE,"axG",%progbits,_ZN3mcu3RCC3setENS_8RC
 231              		.align	1
 232              		.weak	_ZN3mcu3RCC3setENS_8RCC_bits4CFGR9PLLsourceE
 233              		.syntax unified
 234              		.code	16
 235              		.thumb_func
 236              		.fpu softvfp
 238              	_ZN3mcu3RCC3setENS_8RCC_bits4CFGR9PLLsourceE:
 239              	.LFB60:
  37:mculib3/src/periph/rcc_f0.h **** 	RCC& set (PLLsource     v) { CFGR.PLLSRC = v; return *this; }
 240              		.loc 2 37 0
 241              		.cfi_startproc
 242              		@ args = 0, pretend = 0, frame = 8
 243              		@ frame_needed = 1, uses_anonymous_args = 0
 244 0000 80B5     		push	{r7, lr}
 245              	.LCFI12:
 246              		.cfi_def_cfa_offset 8
 247              		.cfi_offset 7, -8
 248              		.cfi_offset 14, -4
 249 0002 82B0     		sub	sp, sp, #8
 250              	.LCFI13:
 251              		.cfi_def_cfa_offset 16
 252 0004 00AF     		add	r7, sp, #0
ARM GAS  /tmp/cc03sYHg.s 			page 17


 253              	.LCFI14:
 254              		.cfi_def_cfa_register 7
 255 0006 7860     		str	r0, [r7, #4]
 256 0008 0A00     		movs	r2, r1
 257 000a FB1C     		adds	r3, r7, #3
 258 000c 1A70     		strb	r2, [r3]
 259              		.loc 2 37 0
 260 000e FB1C     		adds	r3, r7, #3
 261 0010 1B78     		ldrb	r3, [r3]
 262 0012 0122     		movs	r2, #1
 263 0014 1340     		ands	r3, r2
 264 0016 DAB2     		uxtb	r2, r3
 265 0018 7B68     		ldr	r3, [r7, #4]
 266 001a 0121     		movs	r1, #1
 267 001c 0A40     		ands	r2, r1
 268 001e 1204     		lsls	r2, r2, #16
 269 0020 5968     		ldr	r1, [r3, #4]
 270 0022 0448     		ldr	r0, .L14
 271 0024 0140     		ands	r1, r0
 272 0026 0A43     		orrs	r2, r1
 273 0028 5A60     		str	r2, [r3, #4]
 274 002a 7B68     		ldr	r3, [r7, #4]
 275 002c 1800     		movs	r0, r3
 276 002e BD46     		mov	sp, r7
 277 0030 02B0     		add	sp, sp, #8
 278              		@ sp needed
 279 0032 80BD     		pop	{r7, pc}
 280              	.L15:
 281              		.align	2
 282              	.L14:
 283 0034 FFFFFEFF 		.word	-65537
 284              		.cfi_endproc
 285              	.LFE60:
 287              		.section	.text._ZN3mcu3RCC3setENS_8RCC_bits4CFGR13PLLmultiplierE,"axG",%progbits,_ZN3mcu3RCC3setEN
 288              		.align	1
 289              		.weak	_ZN3mcu3RCC3setENS_8RCC_bits4CFGR13PLLmultiplierE
 290              		.syntax unified
 291              		.code	16
 292              		.thumb_func
 293              		.fpu softvfp
 295              	_ZN3mcu3RCC3setENS_8RCC_bits4CFGR13PLLmultiplierE:
 296              	.LFB61:
  38:mculib3/src/periph/rcc_f0.h **** 	RCC& set (PLLmultiplier v) { CFGR.PLLMUL = v; return *this; }
 297              		.loc 2 38 0
 298              		.cfi_startproc
 299              		@ args = 0, pretend = 0, frame = 8
 300              		@ frame_needed = 1, uses_anonymous_args = 0
 301 0000 80B5     		push	{r7, lr}
 302              	.LCFI15:
 303              		.cfi_def_cfa_offset 8
 304              		.cfi_offset 7, -8
 305              		.cfi_offset 14, -4
 306 0002 82B0     		sub	sp, sp, #8
 307              	.LCFI16:
 308              		.cfi_def_cfa_offset 16
 309 0004 00AF     		add	r7, sp, #0
 310              	.LCFI17:
ARM GAS  /tmp/cc03sYHg.s 			page 18


 311              		.cfi_def_cfa_register 7
 312 0006 7860     		str	r0, [r7, #4]
 313 0008 0A00     		movs	r2, r1
 314 000a FB1C     		adds	r3, r7, #3
 315 000c 1A70     		strb	r2, [r3]
 316              		.loc 2 38 0
 317 000e FB1C     		adds	r3, r7, #3
 318 0010 1B78     		ldrb	r3, [r3]
 319 0012 0F22     		movs	r2, #15
 320 0014 1340     		ands	r3, r2
 321 0016 DAB2     		uxtb	r2, r3
 322 0018 7B68     		ldr	r3, [r7, #4]
 323 001a 0F21     		movs	r1, #15
 324 001c 0A40     		ands	r2, r1
 325 001e 9204     		lsls	r2, r2, #18
 326 0020 5968     		ldr	r1, [r3, #4]
 327 0022 0448     		ldr	r0, .L18
 328 0024 0140     		ands	r1, r0
 329 0026 0A43     		orrs	r2, r1
 330 0028 5A60     		str	r2, [r3, #4]
 331 002a 7B68     		ldr	r3, [r7, #4]
 332 002c 1800     		movs	r0, r3
 333 002e BD46     		mov	sp, r7
 334 0030 02B0     		add	sp, sp, #8
 335              		@ sp needed
 336 0032 80BD     		pop	{r7, pc}
 337              	.L19:
 338              		.align	2
 339              	.L18:
 340 0034 FFFFC3FF 		.word	-3932161
 341              		.cfi_endproc
 342              	.LFE61:
 344              		.section	.text._ZN3mcu3RCC6on_HSEEv,"axG",%progbits,_ZN3mcu3RCC6on_HSEEv,comdat
 345              		.align	1
 346              		.weak	_ZN3mcu3RCC6on_HSEEv
 347              		.syntax unified
 348              		.code	16
 349              		.thumb_func
 350              		.fpu softvfp
 352              	_ZN3mcu3RCC6on_HSEEv:
 353              	.LFB62:
  39:mculib3/src/periph/rcc_f0.h **** 
  40:mculib3/src/periph/rcc_f0.h **** 	RCC& on_HSE        () { CR.HSEON = true;         return *this; }
 354              		.loc 2 40 0
 355              		.cfi_startproc
 356              		@ args = 0, pretend = 0, frame = 8
 357              		@ frame_needed = 1, uses_anonymous_args = 0
 358 0000 80B5     		push	{r7, lr}
 359              	.LCFI18:
 360              		.cfi_def_cfa_offset 8
 361              		.cfi_offset 7, -8
 362              		.cfi_offset 14, -4
 363 0002 82B0     		sub	sp, sp, #8
 364              	.LCFI19:
 365              		.cfi_def_cfa_offset 16
 366 0004 00AF     		add	r7, sp, #0
 367              	.LCFI20:
ARM GAS  /tmp/cc03sYHg.s 			page 19


 368              		.cfi_def_cfa_register 7
 369 0006 7860     		str	r0, [r7, #4]
 370              		.loc 2 40 0
 371 0008 7B68     		ldr	r3, [r7, #4]
 372 000a 1A68     		ldr	r2, [r3]
 373 000c 8021     		movs	r1, #128
 374 000e 4902     		lsls	r1, r1, #9
 375 0010 0A43     		orrs	r2, r1
 376 0012 1A60     		str	r2, [r3]
 377 0014 7B68     		ldr	r3, [r7, #4]
 378 0016 1800     		movs	r0, r3
 379 0018 BD46     		mov	sp, r7
 380 001a 02B0     		add	sp, sp, #8
 381              		@ sp needed
 382 001c 80BD     		pop	{r7, pc}
 383              		.cfi_endproc
 384              	.LFE62:
 386              		.section	.text._ZN3mcu3RCC14wait_HSE_readyEv,"axG",%progbits,_ZN3mcu3RCC14wait_HSE_readyEv,comdat
 387              		.align	1
 388              		.weak	_ZN3mcu3RCC14wait_HSE_readyEv
 389              		.syntax unified
 390              		.code	16
 391              		.thumb_func
 392              		.fpu softvfp
 394              	_ZN3mcu3RCC14wait_HSE_readyEv:
 395              	.LFB63:
  41:mculib3/src/periph/rcc_f0.h **** 	RCC& wait_HSE_ready() { while (not CR.HSERDY) {} return *this; }
 396              		.loc 2 41 0
 397              		.cfi_startproc
 398              		@ args = 0, pretend = 0, frame = 8
 399              		@ frame_needed = 1, uses_anonymous_args = 0
 400 0000 80B5     		push	{r7, lr}
 401              	.LCFI21:
 402              		.cfi_def_cfa_offset 8
 403              		.cfi_offset 7, -8
 404              		.cfi_offset 14, -4
 405 0002 82B0     		sub	sp, sp, #8
 406              	.LCFI22:
 407              		.cfi_def_cfa_offset 16
 408 0004 00AF     		add	r7, sp, #0
 409              	.LCFI23:
 410              		.cfi_def_cfa_register 7
 411 0006 7860     		str	r0, [r7, #4]
 412              	.L24:
 413              		.loc 2 41 0
 414 0008 7B68     		ldr	r3, [r7, #4]
 415 000a 1B68     		ldr	r3, [r3]
 416 000c 9B03     		lsls	r3, r3, #14
 417 000e DB0F     		lsrs	r3, r3, #31
 418 0010 DBB2     		uxtb	r3, r3
 419 0012 0122     		movs	r2, #1
 420 0014 5340     		eors	r3, r2
 421 0016 DBB2     		uxtb	r3, r3
 422 0018 002B     		cmp	r3, #0
 423 001a 00D0     		beq	.L23
 424 001c F4E7     		b	.L24
 425              	.L23:
ARM GAS  /tmp/cc03sYHg.s 			page 20


 426              		.loc 2 41 0 is_stmt 0 discriminator 1
 427 001e 7B68     		ldr	r3, [r7, #4]
 428 0020 1800     		movs	r0, r3
 429 0022 BD46     		mov	sp, r7
 430 0024 02B0     		add	sp, sp, #8
 431              		@ sp needed
 432 0026 80BD     		pop	{r7, pc}
 433              		.cfi_endproc
 434              	.LFE63:
 436              		.section	.text._ZN3mcu3RCC6on_PLLEv,"axG",%progbits,_ZN3mcu3RCC6on_PLLEv,comdat
 437              		.align	1
 438              		.weak	_ZN3mcu3RCC6on_PLLEv
 439              		.syntax unified
 440              		.code	16
 441              		.thumb_func
 442              		.fpu softvfp
 444              	_ZN3mcu3RCC6on_PLLEv:
 445              	.LFB64:
  42:mculib3/src/periph/rcc_f0.h **** 	RCC& on_PLL        () { CR.PLLON = true;         return *this; }
 446              		.loc 2 42 0 is_stmt 1
 447              		.cfi_startproc
 448              		@ args = 0, pretend = 0, frame = 8
 449              		@ frame_needed = 1, uses_anonymous_args = 0
 450 0000 80B5     		push	{r7, lr}
 451              	.LCFI24:
 452              		.cfi_def_cfa_offset 8
 453              		.cfi_offset 7, -8
 454              		.cfi_offset 14, -4
 455 0002 82B0     		sub	sp, sp, #8
 456              	.LCFI25:
 457              		.cfi_def_cfa_offset 16
 458 0004 00AF     		add	r7, sp, #0
 459              	.LCFI26:
 460              		.cfi_def_cfa_register 7
 461 0006 7860     		str	r0, [r7, #4]
 462              		.loc 2 42 0
 463 0008 7B68     		ldr	r3, [r7, #4]
 464 000a 1A68     		ldr	r2, [r3]
 465 000c 8021     		movs	r1, #128
 466 000e 4904     		lsls	r1, r1, #17
 467 0010 0A43     		orrs	r2, r1
 468 0012 1A60     		str	r2, [r3]
 469 0014 7B68     		ldr	r3, [r7, #4]
 470 0016 1800     		movs	r0, r3
 471 0018 BD46     		mov	sp, r7
 472 001a 02B0     		add	sp, sp, #8
 473              		@ sp needed
 474 001c 80BD     		pop	{r7, pc}
 475              		.cfi_endproc
 476              	.LFE64:
 478              		.section	.text._ZN3mcu3RCC14wait_PLL_readyEv,"axG",%progbits,_ZN3mcu3RCC14wait_PLL_readyEv,comdat
 479              		.align	1
 480              		.weak	_ZN3mcu3RCC14wait_PLL_readyEv
 481              		.syntax unified
 482              		.code	16
 483              		.thumb_func
 484              		.fpu softvfp
ARM GAS  /tmp/cc03sYHg.s 			page 21


 486              	_ZN3mcu3RCC14wait_PLL_readyEv:
 487              	.LFB65:
  43:mculib3/src/periph/rcc_f0.h **** 	RCC& wait_PLL_ready() { while (not CR.PLLRDY) {} return *this; }
 488              		.loc 2 43 0
 489              		.cfi_startproc
 490              		@ args = 0, pretend = 0, frame = 8
 491              		@ frame_needed = 1, uses_anonymous_args = 0
 492 0000 80B5     		push	{r7, lr}
 493              	.LCFI27:
 494              		.cfi_def_cfa_offset 8
 495              		.cfi_offset 7, -8
 496              		.cfi_offset 14, -4
 497 0002 82B0     		sub	sp, sp, #8
 498              	.LCFI28:
 499              		.cfi_def_cfa_offset 16
 500 0004 00AF     		add	r7, sp, #0
 501              	.LCFI29:
 502              		.cfi_def_cfa_register 7
 503 0006 7860     		str	r0, [r7, #4]
 504              	.L30:
 505              		.loc 2 43 0
 506 0008 7B68     		ldr	r3, [r7, #4]
 507 000a 1B68     		ldr	r3, [r3]
 508 000c 9B01     		lsls	r3, r3, #6
 509 000e DB0F     		lsrs	r3, r3, #31
 510 0010 DBB2     		uxtb	r3, r3
 511 0012 0122     		movs	r2, #1
 512 0014 5340     		eors	r3, r2
 513 0016 DBB2     		uxtb	r3, r3
 514 0018 002B     		cmp	r3, #0
 515 001a 00D0     		beq	.L29
 516 001c F4E7     		b	.L30
 517              	.L29:
 518              		.loc 2 43 0 is_stmt 0 discriminator 1
 519 001e 7B68     		ldr	r3, [r7, #4]
 520 0020 1800     		movs	r0, r3
 521 0022 BD46     		mov	sp, r7
 522 0024 02B0     		add	sp, sp, #8
 523              		@ sp needed
 524 0026 80BD     		pop	{r7, pc}
 525              		.cfi_endproc
 526              	.LFE65:
 528              		.section	.text._ZN3mcu3RCC13get_APB_clockEv,"axG",%progbits,_ZN3mcu3RCC13get_APB_clockEv,comdat
 529              		.align	1
 530              		.weak	_ZN3mcu3RCC13get_APB_clockEv
 531              		.syntax unified
 532              		.code	16
 533              		.thumb_func
 534              		.fpu softvfp
 536              	_ZN3mcu3RCC13get_APB_clockEv:
 537              	.LFB66:
  44:mculib3/src/periph/rcc_f0.h **** 
  45:mculib3/src/periph/rcc_f0.h **** 	size_t get_APB_clock()
 538              		.loc 2 45 0 is_stmt 1
 539              		.cfi_startproc
 540              		@ args = 0, pretend = 0, frame = 16
 541              		@ frame_needed = 1, uses_anonymous_args = 0
ARM GAS  /tmp/cc03sYHg.s 			page 22


 542 0000 80B5     		push	{r7, lr}
 543              	.LCFI30:
 544              		.cfi_def_cfa_offset 8
 545              		.cfi_offset 7, -8
 546              		.cfi_offset 14, -4
 547 0002 84B0     		sub	sp, sp, #16
 548              	.LCFI31:
 549              		.cfi_def_cfa_offset 24
 550 0004 00AF     		add	r7, sp, #0
 551              	.LCFI32:
 552              		.cfi_def_cfa_register 7
 553 0006 7860     		str	r0, [r7, #4]
  46:mculib3/src/periph/rcc_f0.h **** 	{
  47:mculib3/src/periph/rcc_f0.h **** 		auto v = CFGR.PPRE;
 554              		.loc 2 47 0
 555 0008 7B68     		ldr	r3, [r7, #4]
 556 000a 5B68     		ldr	r3, [r3, #4]
 557 000c 5B05     		lsls	r3, r3, #21
 558 000e 5B0F     		lsrs	r3, r3, #29
 559 0010 DAB2     		uxtb	r2, r3
 560 0012 0F21     		movs	r1, #15
 561 0014 7B18     		adds	r3, r7, r1
 562 0016 1A70     		strb	r2, [r3]
  48:mculib3/src/periph/rcc_f0.h **** 		return v == APBprescaler::APBnotdiv ? F_CPU     :
 563              		.loc 2 48 0
 564 0018 7B18     		adds	r3, r7, r1
 565 001a 1B78     		ldrb	r3, [r3]
 566 001c 002B     		cmp	r3, #0
 567 001e 16D0     		beq	.L33
 568              		.loc 2 48 0 is_stmt 0 discriminator 1
 569 0020 0F23     		movs	r3, #15
 570 0022 FB18     		adds	r3, r7, r3
 571 0024 1B78     		ldrb	r3, [r3]
 572 0026 042B     		cmp	r3, #4
 573 0028 0FD0     		beq	.L34
 574              		.loc 2 48 0 discriminator 3
 575 002a 0F23     		movs	r3, #15
 576 002c FB18     		adds	r3, r7, r3
 577 002e 1B78     		ldrb	r3, [r3]
 578 0030 052B     		cmp	r3, #5
 579 0032 08D0     		beq	.L35
 580              		.loc 2 48 0 discriminator 5
 581 0034 0F23     		movs	r3, #15
 582 0036 FB18     		adds	r3, r7, r3
 583 0038 1B78     		ldrb	r3, [r3]
 584 003a 062B     		cmp	r3, #6
 585 003c 01D1     		bne	.L36
 586              		.loc 2 48 0 discriminator 7
 587 003e 064B     		ldr	r3, .L42
  49:mculib3/src/periph/rcc_f0.h **** 				 v == APBprescaler::APBdiv2   ? F_CPU / 2 :
  50:mculib3/src/periph/rcc_f0.h **** 				 v == APBprescaler::APBdiv4   ? F_CPU / 4 :
  51:mculib3/src/periph/rcc_f0.h **** 				 v == APBprescaler::APBdiv8   ? F_CPU / 8 :
  52:mculib3/src/periph/rcc_f0.h **** 														  F_CPU / 16;
 588              		.loc 2 52 0 is_stmt 1 discriminator 7
 589 0040 06E0     		b	.L41
 590              	.L36:
  48:mculib3/src/periph/rcc_f0.h **** 		return v == APBprescaler::APBnotdiv ? F_CPU     :
ARM GAS  /tmp/cc03sYHg.s 			page 23


 591              		.loc 2 48 0 discriminator 8
 592 0042 064B     		ldr	r3, .L42+4
 593              		.loc 2 52 0 discriminator 8
 594 0044 04E0     		b	.L41
 595              	.L35:
  48:mculib3/src/periph/rcc_f0.h **** 		return v == APBprescaler::APBnotdiv ? F_CPU     :
 596              		.loc 2 48 0 discriminator 6
 597 0046 064B     		ldr	r3, .L42+8
 598              		.loc 2 52 0 discriminator 6
 599 0048 02E0     		b	.L41
 600              	.L34:
  48:mculib3/src/periph/rcc_f0.h **** 		return v == APBprescaler::APBnotdiv ? F_CPU     :
 601              		.loc 2 48 0 discriminator 4
 602 004a 064B     		ldr	r3, .L42+12
 603              		.loc 2 52 0 discriminator 4
 604 004c 00E0     		b	.L41
 605              	.L33:
  48:mculib3/src/periph/rcc_f0.h **** 		return v == APBprescaler::APBnotdiv ? F_CPU     :
 606              		.loc 2 48 0 discriminator 2
 607 004e 064B     		ldr	r3, .L42+16
 608              	.L41:
  53:mculib3/src/periph/rcc_f0.h **** 	}
 609              		.loc 2 53 0 discriminator 1
 610 0050 1800     		movs	r0, r3
 611 0052 BD46     		mov	sp, r7
 612 0054 04B0     		add	sp, sp, #16
 613              		@ sp needed
 614 0056 80BD     		pop	{r7, pc}
 615              	.L43:
 616              		.align	2
 617              	.L42:
 618 0058 808D5B00 		.word	6000000
 619 005c C0C62D00 		.word	3000000
 620 0060 001BB700 		.word	12000000
 621 0064 00366E01 		.word	24000000
 622 0068 006CDC02 		.word	48000000
 623              		.cfi_endproc
 624              	.LFE66:
 626              		.section	.text._ZN3mcu3RCC5clockENS_6PeriphE,"axG",%progbits,_ZN3mcu3RCC5clockENS_6PeriphE,comdat
 627              		.align	1
 628              		.weak	_ZN3mcu3RCC5clockENS_6PeriphE
 629              		.syntax unified
 630              		.code	16
 631              		.thumb_func
 632              		.fpu softvfp
 634              	_ZN3mcu3RCC5clockENS_6PeriphE:
 635              	.LFB68:
  54:mculib3/src/periph/rcc_f0.h **** 
  55:mculib3/src/periph/rcc_f0.h **** 	template<Periph p> void clock_enable()
  56:mculib3/src/periph/rcc_f0.h **** 	{
  57:mculib3/src/periph/rcc_f0.h **** 		if      constexpr (p == Periph::GPIOA)  AHBENR .IOPAEN  = true;
  58:mculib3/src/periph/rcc_f0.h **** 		else if constexpr (p == Periph::GPIOB)  AHBENR .IOPBEN  = true;
  59:mculib3/src/periph/rcc_f0.h **** 		else if constexpr (p == Periph::GPIOC)  AHBENR .IOPCEN  = true;
  60:mculib3/src/periph/rcc_f0.h **** 		else if constexpr (p == Periph::GPIOD)  AHBENR .IOPDEN  = true;
  61:mculib3/src/periph/rcc_f0.h **** 		else if constexpr (p == Periph::GPIOF)  AHBENR .IOPFEN  = true;
  62:mculib3/src/periph/rcc_f0.h **** 
  63:mculib3/src/periph/rcc_f0.h **** 		else if constexpr (p == Periph::USART1) APB2ENR.USART1EN  = true;
ARM GAS  /tmp/cc03sYHg.s 			page 24


  64:mculib3/src/periph/rcc_f0.h **** 
  65:mculib3/src/periph/rcc_f0.h **** 		else if constexpr (p == Periph::TIM1)   APB2ENR.TIM1EN  = true;
  66:mculib3/src/periph/rcc_f0.h **** 		else if constexpr (p == Periph::TIM3)   APB1ENR.TIM3EN  = true;
  67:mculib3/src/periph/rcc_f0.h **** 		else if constexpr (p == Periph::TIM14)  APB1ENR.TIM14EN = true;
  68:mculib3/src/periph/rcc_f0.h **** 		else if constexpr (p == Periph::TIM16)  APB2ENR.TIM16EN = true;
  69:mculib3/src/periph/rcc_f0.h **** 		else if constexpr (p == Periph::TIM17)  APB2ENR.TIM17EN = true;
  70:mculib3/src/periph/rcc_f0.h **** 
  71:mculib3/src/periph/rcc_f0.h **** 		else if constexpr (p == Periph::DMA1)         AHBENR.DMAEN = true;
  72:mculib3/src/periph/rcc_f0.h **** 		else if constexpr (p == Periph::DMA1_stream1) AHBENR.DMAEN = true;
  73:mculib3/src/periph/rcc_f0.h **** 		else if constexpr (p == Periph::DMA1_stream2) AHBENR.DMAEN = true;
  74:mculib3/src/periph/rcc_f0.h **** 		else if constexpr (p == Periph::DMA1_stream3) AHBENR.DMAEN = true;
  75:mculib3/src/periph/rcc_f0.h **** 		else if constexpr (p == Periph::DMA1_stream4) AHBENR.DMAEN = true;
  76:mculib3/src/periph/rcc_f0.h **** 		else if constexpr (p == Periph::DMA1_stream5) AHBENR.DMAEN = true;
  77:mculib3/src/periph/rcc_f0.h **** 
  78:mculib3/src/periph/rcc_f0.h **** 		else if constexpr (p == Periph::ADC1)   APB2ENR.ADC1EN = true;
  79:mculib3/src/periph/rcc_f0.h **** 		
  80:mculib3/src/periph/rcc_f0.h ****         else static_assert ( always_false_v<decltype(p)>, " clock_enable");
  81:mculib3/src/periph/rcc_f0.h **** 	}
  82:mculib3/src/periph/rcc_f0.h **** 
  83:mculib3/src/periph/rcc_f0.h **** 	auto clock (Periph p) { return get_APB_clock(); }
 636              		.loc 2 83 0
 637              		.cfi_startproc
 638              		@ args = 0, pretend = 0, frame = 8
 639              		@ frame_needed = 1, uses_anonymous_args = 0
 640 0000 80B5     		push	{r7, lr}
 641              	.LCFI33:
 642              		.cfi_def_cfa_offset 8
 643              		.cfi_offset 7, -8
 644              		.cfi_offset 14, -4
 645 0002 82B0     		sub	sp, sp, #8
 646              	.LCFI34:
 647              		.cfi_def_cfa_offset 16
 648 0004 00AF     		add	r7, sp, #0
 649              	.LCFI35:
 650              		.cfi_def_cfa_register 7
 651 0006 7860     		str	r0, [r7, #4]
 652 0008 3960     		str	r1, [r7]
 653              		.loc 2 83 0
 654 000a 7B68     		ldr	r3, [r7, #4]
 655 000c 1800     		movs	r0, r3
 656 000e FFF7FEFF 		bl	_ZN3mcu3RCC13get_APB_clockEv
 657 0012 0300     		movs	r3, r0
 658 0014 1800     		movs	r0, r3
 659 0016 BD46     		mov	sp, r7
 660 0018 02B0     		add	sp, sp, #8
 661              		@ sp needed
 662 001a 80BD     		pop	{r7, pc}
 663              		.cfi_endproc
 664              	.LFE68:
 666              		.section	.text._ZN3mcu5FLASH7is_lockEv,"axG",%progbits,_ZN3mcu5FLASH7is_lockEv,comdat
 667              		.align	1
 668              		.weak	_ZN3mcu5FLASH7is_lockEv
 669              		.syntax unified
 670              		.code	16
 671              		.thumb_func
 672              		.fpu softvfp
 674              	_ZN3mcu5FLASH7is_lockEv:
ARM GAS  /tmp/cc03sYHg.s 			page 25


 675              	.LFB73:
 676              		.file 3 "mculib3/src/periph/flash_f0.h"
   1:mculib3/src/periph/flash_f0.h **** #pragma once
   2:mculib3/src/periph/flash_f0.h **** 
   3:mculib3/src/periph/flash_f0.h **** #include "bits_flash_f0.h"
   4:mculib3/src/periph/flash_f0.h **** 
   5:mculib3/src/periph/flash_f0.h **** namespace mcu {
   6:mculib3/src/periph/flash_f0.h **** 
   7:mculib3/src/periph/flash_f0.h **** class FLASH {
   8:mculib3/src/periph/flash_f0.h **** protected:
   9:mculib3/src/periph/flash_f0.h ****    volatile FLASH_bits::ACR ACR;      // FLASH access control register, offset: 0x00
  10:mculib3/src/periph/flash_f0.h ****    volatile uint32_t        KEYR;     // FLASH key register,            offset: 0x04
  11:mculib3/src/periph/flash_f0.h ****    volatile uint32_t        OPTKEYR;  // FLASH OPT key register,        offset: 0x08
  12:mculib3/src/periph/flash_f0.h ****    volatile FLASH_bits::SR  SR;       // FLASH status register,         offset: 0x0C
  13:mculib3/src/periph/flash_f0.h ****    volatile FLASH_bits::CR  CR;       // FLASH control register,        offset: 0x10
  14:mculib3/src/periph/flash_f0.h ****    volatile uint32_t        AR;       // FLASH address register,        offset: 0x14
  15:mculib3/src/periph/flash_f0.h ****    volatile uint32_t        RESERVED; //  Reserved,                             0x18
  16:mculib3/src/periph/flash_f0.h ****    volatile uint32_t        OBR;      // FLASH option bytes register,   offset: 0x1C
  17:mculib3/src/periph/flash_f0.h ****    volatile uint32_t        WRPR;     // FLASH option bytes register,   offset: 0x20
  18:mculib3/src/periph/flash_f0.h **** public:
  19:mculib3/src/periph/flash_f0.h ****    using CMSIS_type   = FLASH_TypeDef;
  20:mculib3/src/periph/flash_f0.h ****    using Latency      = FLASH_bits::ACR::Latency;
  21:mculib3/src/periph/flash_f0.h ****    ///   ,    
  22:mculib3/src/periph/flash_f0.h ****    enum Sector { _0, _1, _2, _3, _4, _5, _6, _7, _8, _9,
  23:mculib3/src/periph/flash_f0.h ****                 _10,_11,_12,_13,_14,_15,_16,_17,_18,_19,
  24:mculib3/src/periph/flash_f0.h ****                 _20,_21,_22,_23,_24,_25,_26,_27,_28,_29,
  25:mculib3/src/periph/flash_f0.h ****                 _30,_31
  26:mculib3/src/periph/flash_f0.h ****    };
  27:mculib3/src/periph/flash_f0.h **** 
  28:mculib3/src/periph/flash_f0.h ****    auto& like_CMSIS() { return *reinterpret_cast<CMSIS_type*>(this); }
  29:mculib3/src/periph/flash_f0.h **** 
  30:mculib3/src/periph/flash_f0.h ****    FLASH& set (Latency v)            { ACR.LATENCY = v;    return *this; }
  31:mculib3/src/periph/flash_f0.h ****    FLASH& lock()                     { CR.LOCK     = true; return *this; }
  32:mculib3/src/periph/flash_f0.h ****    bool   is_lock()                  { return CR.LOCK;                   }
 677              		.loc 3 32 0
 678              		.cfi_startproc
 679              		@ args = 0, pretend = 0, frame = 8
 680              		@ frame_needed = 1, uses_anonymous_args = 0
 681 0000 80B5     		push	{r7, lr}
 682              	.LCFI36:
 683              		.cfi_def_cfa_offset 8
 684              		.cfi_offset 7, -8
 685              		.cfi_offset 14, -4
 686 0002 82B0     		sub	sp, sp, #8
 687              	.LCFI37:
 688              		.cfi_def_cfa_offset 16
 689 0004 00AF     		add	r7, sp, #0
 690              	.LCFI38:
 691              		.cfi_def_cfa_register 7
 692 0006 7860     		str	r0, [r7, #4]
 693              		.loc 3 32 0
 694 0008 7B68     		ldr	r3, [r7, #4]
 695 000a 1B69     		ldr	r3, [r3, #16]
 696 000c 1B06     		lsls	r3, r3, #24
 697 000e DB0F     		lsrs	r3, r3, #31
 698 0010 DBB2     		uxtb	r3, r3
 699 0012 1800     		movs	r0, r3
ARM GAS  /tmp/cc03sYHg.s 			page 26


 700 0014 BD46     		mov	sp, r7
 701 0016 02B0     		add	sp, sp, #8
 702              		@ sp needed
 703 0018 80BD     		pop	{r7, pc}
 704              		.cfi_endproc
 705              	.LFE73:
 707              		.section	.text._ZN3mcu5FLASH6unlockEv,"ax",%progbits
 708              		.align	1
 709              		.global	_ZN3mcu5FLASH6unlockEv
 710              		.syntax unified
 711              		.code	16
 712              		.thumb_func
 713              		.fpu softvfp
 715              	_ZN3mcu5FLASH6unlockEv:
 716              	.LFB82:
  33:mculib3/src/periph/flash_f0.h ****    FLASH& unlock();
  34:mculib3/src/periph/flash_f0.h ****    FLASH& set_progMode()             { CR.PG       = true; return *this; }
  35:mculib3/src/periph/flash_f0.h ****    bool   is_endOfProg()             { return SR.EOP;                    }
  36:mculib3/src/periph/flash_f0.h ****    FLASH& clear_flag_endOfProg()     { SR.EOP      = true; return *this; }
  37:mculib3/src/periph/flash_f0.h ****    bool   is_busy()                  { return SR.BSY;                    }
  38:mculib3/src/periph/flash_f0.h ****    FLASH& en_interrupt_endOfProg()   { CR.EOPIE    = true; return *this; }
  39:mculib3/src/periph/flash_f0.h **** 
  40:mculib3/src/periph/flash_f0.h ****    template<Sector> FLASH& start_erase();
  41:mculib3/src/periph/flash_f0.h **** 
  42:mculib3/src/periph/flash_f0.h ****    template<Sector s> static constexpr size_t address() { return 0x08000000 + 1024 * s; }
  43:mculib3/src/periph/flash_f0.h ****    template<Sector>   static constexpr size_t size()    { return 1024; }
  44:mculib3/src/periph/flash_f0.h **** };
  45:mculib3/src/periph/flash_f0.h **** 
  46:mculib3/src/periph/flash_f0.h **** 
  47:mculib3/src/periph/flash_f0.h **** #if not defined(USE_MOCK_FLASH)
  48:mculib3/src/periph/flash_f0.h **** template<Periph p> std::enable_if_t<p == Periph::FLASH, FLASH&> make_reference() { return *reinterp
  49:mculib3/src/periph/flash_f0.h **** #endif
  50:mculib3/src/periph/flash_f0.h **** 
  51:mculib3/src/periph/flash_f0.h **** 
  52:mculib3/src/periph/flash_f0.h **** 
  53:mculib3/src/periph/flash_f0.h **** 
  54:mculib3/src/periph/flash_f0.h **** 
  55:mculib3/src/periph/flash_f0.h **** 
  56:mculib3/src/periph/flash_f0.h **** 
  57:mculib3/src/periph/flash_f0.h **** FLASH& FLASH::unlock()
  58:mculib3/src/periph/flash_f0.h **** {
 717              		.loc 3 58 0
 718              		.cfi_startproc
 719              		@ args = 0, pretend = 0, frame = 16
 720              		@ frame_needed = 1, uses_anonymous_args = 0
 721 0000 80B5     		push	{r7, lr}
 722              	.LCFI39:
 723              		.cfi_def_cfa_offset 8
 724              		.cfi_offset 7, -8
 725              		.cfi_offset 14, -4
 726 0002 84B0     		sub	sp, sp, #16
 727              	.LCFI40:
 728              		.cfi_def_cfa_offset 24
 729 0004 00AF     		add	r7, sp, #0
 730              	.LCFI41:
 731              		.cfi_def_cfa_register 7
 732 0006 7860     		str	r0, [r7, #4]
ARM GAS  /tmp/cc03sYHg.s 			page 27


  59:mculib3/src/periph/flash_f0.h ****    constexpr uint32_t Key1 = 0x45670123;
 733              		.loc 3 59 0
 734 0008 0A4B     		ldr	r3, .L51
 735 000a FB60     		str	r3, [r7, #12]
  60:mculib3/src/periph/flash_f0.h ****    constexpr uint32_t Key2 = 0xCDEF89AB;
 736              		.loc 3 60 0
 737 000c 0A4B     		ldr	r3, .L51+4
 738 000e BB60     		str	r3, [r7, #8]
  61:mculib3/src/periph/flash_f0.h ****    if (is_lock()) {
 739              		.loc 3 61 0
 740 0010 7B68     		ldr	r3, [r7, #4]
 741 0012 1800     		movs	r0, r3
 742 0014 FFF7FEFF 		bl	_ZN3mcu5FLASH7is_lockEv
 743 0018 031E     		subs	r3, r0, #0
 744 001a 05D0     		beq	.L49
  62:mculib3/src/periph/flash_f0.h ****       KEYR = Key1;
 745              		.loc 3 62 0
 746 001c 7B68     		ldr	r3, [r7, #4]
 747 001e 054A     		ldr	r2, .L51
 748 0020 5A60     		str	r2, [r3, #4]
  63:mculib3/src/periph/flash_f0.h ****       IF_TEST_WAIT_MS(10);
  64:mculib3/src/periph/flash_f0.h ****       KEYR = Key2;
 749              		.loc 3 64 0
 750 0022 7B68     		ldr	r3, [r7, #4]
 751 0024 044A     		ldr	r2, .L51+4
 752 0026 5A60     		str	r2, [r3, #4]
 753              	.L49:
  65:mculib3/src/periph/flash_f0.h ****    }
  66:mculib3/src/periph/flash_f0.h ****    return *this;
 754              		.loc 3 66 0
 755 0028 7B68     		ldr	r3, [r7, #4]
  67:mculib3/src/periph/flash_f0.h **** }
 756              		.loc 3 67 0
 757 002a 1800     		movs	r0, r3
 758 002c BD46     		mov	sp, r7
 759 002e 04B0     		add	sp, sp, #16
 760              		@ sp needed
 761 0030 80BD     		pop	{r7, pc}
 762              	.L52:
 763 0032 C046     		.align	2
 764              	.L51:
 765 0034 23016745 		.word	1164378403
 766 0038 AB89EFCD 		.word	-839939669
 767              		.cfi_endproc
 768              	.LFE82:
 770              		.section	.text._ZnwjPv,"axG",%progbits,_ZnwjPv,comdat
 771              		.align	1
 772              		.weak	_ZnwjPv
 773              		.syntax unified
 774              		.code	16
 775              		.thumb_func
 776              		.fpu softvfp
 778              	_ZnwjPv:
 779              	.LFB247:
 780              		.file 4 "/home/users/aag/code/gcc-arm-none-eabi-7-2018-q2-update/arm-none-eabi/include/c++/7.3.1/n
   1:/home/users/aag/code/gcc-arm-none-eabi-7-2018-q2-update/arm-none-eabi/include/c++/7.3.1/new **** // The -*- C++ -*- dynamic memory management header.
   2:/home/users/aag/code/gcc-arm-none-eabi-7-2018-q2-update/arm-none-eabi/include/c++/7.3.1/new **** 
ARM GAS  /tmp/cc03sYHg.s 			page 28


   3:/home/users/aag/code/gcc-arm-none-eabi-7-2018-q2-update/arm-none-eabi/include/c++/7.3.1/new **** // Copyright (C) 1994-2017 Free Software Foundation, Inc.
   4:/home/users/aag/code/gcc-arm-none-eabi-7-2018-q2-update/arm-none-eabi/include/c++/7.3.1/new **** 
   5:/home/users/aag/code/gcc-arm-none-eabi-7-2018-q2-update/arm-none-eabi/include/c++/7.3.1/new **** // This file is part of GCC.
   6:/home/users/aag/code/gcc-arm-none-eabi-7-2018-q2-update/arm-none-eabi/include/c++/7.3.1/new **** //
   7:/home/users/aag/code/gcc-arm-none-eabi-7-2018-q2-update/arm-none-eabi/include/c++/7.3.1/new **** // GCC is free software; you can redistribute it and/or modify
   8:/home/users/aag/code/gcc-arm-none-eabi-7-2018-q2-update/arm-none-eabi/include/c++/7.3.1/new **** // it under the terms of the GNU General Public License as published by
   9:/home/users/aag/code/gcc-arm-none-eabi-7-2018-q2-update/arm-none-eabi/include/c++/7.3.1/new **** // the Free Software Foundation; either version 3, or (at your option)
  10:/home/users/aag/code/gcc-arm-none-eabi-7-2018-q2-update/arm-none-eabi/include/c++/7.3.1/new **** // any later version.
  11:/home/users/aag/code/gcc-arm-none-eabi-7-2018-q2-update/arm-none-eabi/include/c++/7.3.1/new **** // 
  12:/home/users/aag/code/gcc-arm-none-eabi-7-2018-q2-update/arm-none-eabi/include/c++/7.3.1/new **** // GCC is distributed in the hope that it will be useful,
  13:/home/users/aag/code/gcc-arm-none-eabi-7-2018-q2-update/arm-none-eabi/include/c++/7.3.1/new **** // but WITHOUT ANY WARRANTY; without even the implied warranty of
  14:/home/users/aag/code/gcc-arm-none-eabi-7-2018-q2-update/arm-none-eabi/include/c++/7.3.1/new **** // MERCHANTABILITY or FITNESS FOR A PARTICULAR PURPOSE.  See the
  15:/home/users/aag/code/gcc-arm-none-eabi-7-2018-q2-update/arm-none-eabi/include/c++/7.3.1/new **** // GNU General Public License for more details.
  16:/home/users/aag/code/gcc-arm-none-eabi-7-2018-q2-update/arm-none-eabi/include/c++/7.3.1/new **** // 
  17:/home/users/aag/code/gcc-arm-none-eabi-7-2018-q2-update/arm-none-eabi/include/c++/7.3.1/new **** // Under Section 7 of GPL version 3, you are granted additional
  18:/home/users/aag/code/gcc-arm-none-eabi-7-2018-q2-update/arm-none-eabi/include/c++/7.3.1/new **** // permissions described in the GCC Runtime Library Exception, version
  19:/home/users/aag/code/gcc-arm-none-eabi-7-2018-q2-update/arm-none-eabi/include/c++/7.3.1/new **** // 3.1, as published by the Free Software Foundation.
  20:/home/users/aag/code/gcc-arm-none-eabi-7-2018-q2-update/arm-none-eabi/include/c++/7.3.1/new **** 
  21:/home/users/aag/code/gcc-arm-none-eabi-7-2018-q2-update/arm-none-eabi/include/c++/7.3.1/new **** // You should have received a copy of the GNU General Public License and
  22:/home/users/aag/code/gcc-arm-none-eabi-7-2018-q2-update/arm-none-eabi/include/c++/7.3.1/new **** // a copy of the GCC Runtime Library Exception along with this program;
  23:/home/users/aag/code/gcc-arm-none-eabi-7-2018-q2-update/arm-none-eabi/include/c++/7.3.1/new **** // see the files COPYING3 and COPYING.RUNTIME respectively.  If not, see
  24:/home/users/aag/code/gcc-arm-none-eabi-7-2018-q2-update/arm-none-eabi/include/c++/7.3.1/new **** // <http://www.gnu.org/licenses/>.
  25:/home/users/aag/code/gcc-arm-none-eabi-7-2018-q2-update/arm-none-eabi/include/c++/7.3.1/new **** 
  26:/home/users/aag/code/gcc-arm-none-eabi-7-2018-q2-update/arm-none-eabi/include/c++/7.3.1/new **** /** @file new
  27:/home/users/aag/code/gcc-arm-none-eabi-7-2018-q2-update/arm-none-eabi/include/c++/7.3.1/new ****  *  This is a Standard C++ Library header.
  28:/home/users/aag/code/gcc-arm-none-eabi-7-2018-q2-update/arm-none-eabi/include/c++/7.3.1/new ****  *
  29:/home/users/aag/code/gcc-arm-none-eabi-7-2018-q2-update/arm-none-eabi/include/c++/7.3.1/new ****  *  The header @c new defines several functions to manage dynamic memory and
  30:/home/users/aag/code/gcc-arm-none-eabi-7-2018-q2-update/arm-none-eabi/include/c++/7.3.1/new ****  *  handling memory allocation errors; see
  31:/home/users/aag/code/gcc-arm-none-eabi-7-2018-q2-update/arm-none-eabi/include/c++/7.3.1/new ****  *  http://gcc.gnu.org/onlinedocs/libstdc++/18_support/howto.html#4 for more.
  32:/home/users/aag/code/gcc-arm-none-eabi-7-2018-q2-update/arm-none-eabi/include/c++/7.3.1/new ****  */
  33:/home/users/aag/code/gcc-arm-none-eabi-7-2018-q2-update/arm-none-eabi/include/c++/7.3.1/new **** 
  34:/home/users/aag/code/gcc-arm-none-eabi-7-2018-q2-update/arm-none-eabi/include/c++/7.3.1/new **** #ifndef _NEW
  35:/home/users/aag/code/gcc-arm-none-eabi-7-2018-q2-update/arm-none-eabi/include/c++/7.3.1/new **** #define _NEW
  36:/home/users/aag/code/gcc-arm-none-eabi-7-2018-q2-update/arm-none-eabi/include/c++/7.3.1/new **** 
  37:/home/users/aag/code/gcc-arm-none-eabi-7-2018-q2-update/arm-none-eabi/include/c++/7.3.1/new **** #pragma GCC system_header
  38:/home/users/aag/code/gcc-arm-none-eabi-7-2018-q2-update/arm-none-eabi/include/c++/7.3.1/new **** 
  39:/home/users/aag/code/gcc-arm-none-eabi-7-2018-q2-update/arm-none-eabi/include/c++/7.3.1/new **** #include <bits/c++config.h>
  40:/home/users/aag/code/gcc-arm-none-eabi-7-2018-q2-update/arm-none-eabi/include/c++/7.3.1/new **** #include <exception>
  41:/home/users/aag/code/gcc-arm-none-eabi-7-2018-q2-update/arm-none-eabi/include/c++/7.3.1/new **** 
  42:/home/users/aag/code/gcc-arm-none-eabi-7-2018-q2-update/arm-none-eabi/include/c++/7.3.1/new **** #pragma GCC visibility push(default)
  43:/home/users/aag/code/gcc-arm-none-eabi-7-2018-q2-update/arm-none-eabi/include/c++/7.3.1/new **** 
  44:/home/users/aag/code/gcc-arm-none-eabi-7-2018-q2-update/arm-none-eabi/include/c++/7.3.1/new **** extern "C++" {
  45:/home/users/aag/code/gcc-arm-none-eabi-7-2018-q2-update/arm-none-eabi/include/c++/7.3.1/new **** 
  46:/home/users/aag/code/gcc-arm-none-eabi-7-2018-q2-update/arm-none-eabi/include/c++/7.3.1/new **** namespace std 
  47:/home/users/aag/code/gcc-arm-none-eabi-7-2018-q2-update/arm-none-eabi/include/c++/7.3.1/new **** {
  48:/home/users/aag/code/gcc-arm-none-eabi-7-2018-q2-update/arm-none-eabi/include/c++/7.3.1/new ****   /**
  49:/home/users/aag/code/gcc-arm-none-eabi-7-2018-q2-update/arm-none-eabi/include/c++/7.3.1/new ****    *  @brief  Exception possibly thrown by @c new.
  50:/home/users/aag/code/gcc-arm-none-eabi-7-2018-q2-update/arm-none-eabi/include/c++/7.3.1/new ****    *  @ingroup exceptions
  51:/home/users/aag/code/gcc-arm-none-eabi-7-2018-q2-update/arm-none-eabi/include/c++/7.3.1/new ****    *
  52:/home/users/aag/code/gcc-arm-none-eabi-7-2018-q2-update/arm-none-eabi/include/c++/7.3.1/new ****    *  @c bad_alloc (or classes derived from it) is used to report allocation
  53:/home/users/aag/code/gcc-arm-none-eabi-7-2018-q2-update/arm-none-eabi/include/c++/7.3.1/new ****    *  errors from the throwing forms of @c new.  */
  54:/home/users/aag/code/gcc-arm-none-eabi-7-2018-q2-update/arm-none-eabi/include/c++/7.3.1/new ****   class bad_alloc : public exception 
  55:/home/users/aag/code/gcc-arm-none-eabi-7-2018-q2-update/arm-none-eabi/include/c++/7.3.1/new ****   {
  56:/home/users/aag/code/gcc-arm-none-eabi-7-2018-q2-update/arm-none-eabi/include/c++/7.3.1/new ****   public:
  57:/home/users/aag/code/gcc-arm-none-eabi-7-2018-q2-update/arm-none-eabi/include/c++/7.3.1/new ****     bad_alloc() throw() { }
  58:/home/users/aag/code/gcc-arm-none-eabi-7-2018-q2-update/arm-none-eabi/include/c++/7.3.1/new **** 
  59:/home/users/aag/code/gcc-arm-none-eabi-7-2018-q2-update/arm-none-eabi/include/c++/7.3.1/new ****     // This declaration is not useless:
ARM GAS  /tmp/cc03sYHg.s 			page 29


  60:/home/users/aag/code/gcc-arm-none-eabi-7-2018-q2-update/arm-none-eabi/include/c++/7.3.1/new ****     // http://gcc.gnu.org/onlinedocs/gcc-3.0.2/gcc_6.html#SEC118
  61:/home/users/aag/code/gcc-arm-none-eabi-7-2018-q2-update/arm-none-eabi/include/c++/7.3.1/new ****     virtual ~bad_alloc() throw();
  62:/home/users/aag/code/gcc-arm-none-eabi-7-2018-q2-update/arm-none-eabi/include/c++/7.3.1/new **** 
  63:/home/users/aag/code/gcc-arm-none-eabi-7-2018-q2-update/arm-none-eabi/include/c++/7.3.1/new ****     // See comment in eh_exception.cc.
  64:/home/users/aag/code/gcc-arm-none-eabi-7-2018-q2-update/arm-none-eabi/include/c++/7.3.1/new ****     virtual const char* what() const throw();
  65:/home/users/aag/code/gcc-arm-none-eabi-7-2018-q2-update/arm-none-eabi/include/c++/7.3.1/new ****   };
  66:/home/users/aag/code/gcc-arm-none-eabi-7-2018-q2-update/arm-none-eabi/include/c++/7.3.1/new **** 
  67:/home/users/aag/code/gcc-arm-none-eabi-7-2018-q2-update/arm-none-eabi/include/c++/7.3.1/new **** #if __cplusplus >= 201103L
  68:/home/users/aag/code/gcc-arm-none-eabi-7-2018-q2-update/arm-none-eabi/include/c++/7.3.1/new ****   class bad_array_new_length : public bad_alloc
  69:/home/users/aag/code/gcc-arm-none-eabi-7-2018-q2-update/arm-none-eabi/include/c++/7.3.1/new ****   {
  70:/home/users/aag/code/gcc-arm-none-eabi-7-2018-q2-update/arm-none-eabi/include/c++/7.3.1/new ****   public:
  71:/home/users/aag/code/gcc-arm-none-eabi-7-2018-q2-update/arm-none-eabi/include/c++/7.3.1/new ****     bad_array_new_length() throw() { };
  72:/home/users/aag/code/gcc-arm-none-eabi-7-2018-q2-update/arm-none-eabi/include/c++/7.3.1/new **** 
  73:/home/users/aag/code/gcc-arm-none-eabi-7-2018-q2-update/arm-none-eabi/include/c++/7.3.1/new ****     // This declaration is not useless:
  74:/home/users/aag/code/gcc-arm-none-eabi-7-2018-q2-update/arm-none-eabi/include/c++/7.3.1/new ****     // http://gcc.gnu.org/onlinedocs/gcc-3.0.2/gcc_6.html#SEC118
  75:/home/users/aag/code/gcc-arm-none-eabi-7-2018-q2-update/arm-none-eabi/include/c++/7.3.1/new ****     virtual ~bad_array_new_length() throw();
  76:/home/users/aag/code/gcc-arm-none-eabi-7-2018-q2-update/arm-none-eabi/include/c++/7.3.1/new **** 
  77:/home/users/aag/code/gcc-arm-none-eabi-7-2018-q2-update/arm-none-eabi/include/c++/7.3.1/new ****     // See comment in eh_exception.cc.
  78:/home/users/aag/code/gcc-arm-none-eabi-7-2018-q2-update/arm-none-eabi/include/c++/7.3.1/new ****     virtual const char* what() const throw();
  79:/home/users/aag/code/gcc-arm-none-eabi-7-2018-q2-update/arm-none-eabi/include/c++/7.3.1/new ****   };
  80:/home/users/aag/code/gcc-arm-none-eabi-7-2018-q2-update/arm-none-eabi/include/c++/7.3.1/new **** #endif
  81:/home/users/aag/code/gcc-arm-none-eabi-7-2018-q2-update/arm-none-eabi/include/c++/7.3.1/new **** 
  82:/home/users/aag/code/gcc-arm-none-eabi-7-2018-q2-update/arm-none-eabi/include/c++/7.3.1/new **** #if __cpp_aligned_new
  83:/home/users/aag/code/gcc-arm-none-eabi-7-2018-q2-update/arm-none-eabi/include/c++/7.3.1/new ****   enum class align_val_t: size_t {};
  84:/home/users/aag/code/gcc-arm-none-eabi-7-2018-q2-update/arm-none-eabi/include/c++/7.3.1/new **** #endif
  85:/home/users/aag/code/gcc-arm-none-eabi-7-2018-q2-update/arm-none-eabi/include/c++/7.3.1/new **** 
  86:/home/users/aag/code/gcc-arm-none-eabi-7-2018-q2-update/arm-none-eabi/include/c++/7.3.1/new ****   struct nothrow_t
  87:/home/users/aag/code/gcc-arm-none-eabi-7-2018-q2-update/arm-none-eabi/include/c++/7.3.1/new ****   {
  88:/home/users/aag/code/gcc-arm-none-eabi-7-2018-q2-update/arm-none-eabi/include/c++/7.3.1/new **** #if __cplusplus >= 201103L
  89:/home/users/aag/code/gcc-arm-none-eabi-7-2018-q2-update/arm-none-eabi/include/c++/7.3.1/new ****     explicit nothrow_t() = default;
  90:/home/users/aag/code/gcc-arm-none-eabi-7-2018-q2-update/arm-none-eabi/include/c++/7.3.1/new **** #endif
  91:/home/users/aag/code/gcc-arm-none-eabi-7-2018-q2-update/arm-none-eabi/include/c++/7.3.1/new ****   };
  92:/home/users/aag/code/gcc-arm-none-eabi-7-2018-q2-update/arm-none-eabi/include/c++/7.3.1/new **** 
  93:/home/users/aag/code/gcc-arm-none-eabi-7-2018-q2-update/arm-none-eabi/include/c++/7.3.1/new ****   extern const nothrow_t nothrow;
  94:/home/users/aag/code/gcc-arm-none-eabi-7-2018-q2-update/arm-none-eabi/include/c++/7.3.1/new **** 
  95:/home/users/aag/code/gcc-arm-none-eabi-7-2018-q2-update/arm-none-eabi/include/c++/7.3.1/new ****   /** If you write your own error handler to be called by @c new, it must
  96:/home/users/aag/code/gcc-arm-none-eabi-7-2018-q2-update/arm-none-eabi/include/c++/7.3.1/new ****    *  be of this type.  */
  97:/home/users/aag/code/gcc-arm-none-eabi-7-2018-q2-update/arm-none-eabi/include/c++/7.3.1/new ****   typedef void (*new_handler)();
  98:/home/users/aag/code/gcc-arm-none-eabi-7-2018-q2-update/arm-none-eabi/include/c++/7.3.1/new **** 
  99:/home/users/aag/code/gcc-arm-none-eabi-7-2018-q2-update/arm-none-eabi/include/c++/7.3.1/new ****   /// Takes a replacement handler as the argument, returns the
 100:/home/users/aag/code/gcc-arm-none-eabi-7-2018-q2-update/arm-none-eabi/include/c++/7.3.1/new ****   /// previous handler.
 101:/home/users/aag/code/gcc-arm-none-eabi-7-2018-q2-update/arm-none-eabi/include/c++/7.3.1/new ****   new_handler set_new_handler(new_handler) throw();
 102:/home/users/aag/code/gcc-arm-none-eabi-7-2018-q2-update/arm-none-eabi/include/c++/7.3.1/new **** 
 103:/home/users/aag/code/gcc-arm-none-eabi-7-2018-q2-update/arm-none-eabi/include/c++/7.3.1/new **** #if __cplusplus >= 201103L
 104:/home/users/aag/code/gcc-arm-none-eabi-7-2018-q2-update/arm-none-eabi/include/c++/7.3.1/new ****   /// Return the current new handler.
 105:/home/users/aag/code/gcc-arm-none-eabi-7-2018-q2-update/arm-none-eabi/include/c++/7.3.1/new ****   new_handler get_new_handler() noexcept;
 106:/home/users/aag/code/gcc-arm-none-eabi-7-2018-q2-update/arm-none-eabi/include/c++/7.3.1/new **** #endif
 107:/home/users/aag/code/gcc-arm-none-eabi-7-2018-q2-update/arm-none-eabi/include/c++/7.3.1/new **** } // namespace std
 108:/home/users/aag/code/gcc-arm-none-eabi-7-2018-q2-update/arm-none-eabi/include/c++/7.3.1/new **** 
 109:/home/users/aag/code/gcc-arm-none-eabi-7-2018-q2-update/arm-none-eabi/include/c++/7.3.1/new **** //@{
 110:/home/users/aag/code/gcc-arm-none-eabi-7-2018-q2-update/arm-none-eabi/include/c++/7.3.1/new **** /** These are replaceable signatures:
 111:/home/users/aag/code/gcc-arm-none-eabi-7-2018-q2-update/arm-none-eabi/include/c++/7.3.1/new ****  *  - normal single new and delete (no arguments, throw @c bad_alloc on error)
 112:/home/users/aag/code/gcc-arm-none-eabi-7-2018-q2-update/arm-none-eabi/include/c++/7.3.1/new ****  *  - normal array new and delete (same)
 113:/home/users/aag/code/gcc-arm-none-eabi-7-2018-q2-update/arm-none-eabi/include/c++/7.3.1/new ****  *  - @c nothrow single new and delete (take a @c nothrow argument, return
 114:/home/users/aag/code/gcc-arm-none-eabi-7-2018-q2-update/arm-none-eabi/include/c++/7.3.1/new ****  *    @c NULL on error)
 115:/home/users/aag/code/gcc-arm-none-eabi-7-2018-q2-update/arm-none-eabi/include/c++/7.3.1/new ****  *  - @c nothrow array new and delete (same)
 116:/home/users/aag/code/gcc-arm-none-eabi-7-2018-q2-update/arm-none-eabi/include/c++/7.3.1/new ****  *
ARM GAS  /tmp/cc03sYHg.s 			page 30


 117:/home/users/aag/code/gcc-arm-none-eabi-7-2018-q2-update/arm-none-eabi/include/c++/7.3.1/new ****  *  Placement new and delete signatures (take a memory address argument,
 118:/home/users/aag/code/gcc-arm-none-eabi-7-2018-q2-update/arm-none-eabi/include/c++/7.3.1/new ****  *  does nothing) may not be replaced by a user's program.
 119:/home/users/aag/code/gcc-arm-none-eabi-7-2018-q2-update/arm-none-eabi/include/c++/7.3.1/new **** */
 120:/home/users/aag/code/gcc-arm-none-eabi-7-2018-q2-update/arm-none-eabi/include/c++/7.3.1/new **** void* operator new(std::size_t) _GLIBCXX_THROW (std::bad_alloc)
 121:/home/users/aag/code/gcc-arm-none-eabi-7-2018-q2-update/arm-none-eabi/include/c++/7.3.1/new ****   __attribute__((__externally_visible__));
 122:/home/users/aag/code/gcc-arm-none-eabi-7-2018-q2-update/arm-none-eabi/include/c++/7.3.1/new **** void* operator new[](std::size_t) _GLIBCXX_THROW (std::bad_alloc)
 123:/home/users/aag/code/gcc-arm-none-eabi-7-2018-q2-update/arm-none-eabi/include/c++/7.3.1/new ****   __attribute__((__externally_visible__));
 124:/home/users/aag/code/gcc-arm-none-eabi-7-2018-q2-update/arm-none-eabi/include/c++/7.3.1/new **** void operator delete(void*) _GLIBCXX_USE_NOEXCEPT
 125:/home/users/aag/code/gcc-arm-none-eabi-7-2018-q2-update/arm-none-eabi/include/c++/7.3.1/new ****   __attribute__((__externally_visible__));
 126:/home/users/aag/code/gcc-arm-none-eabi-7-2018-q2-update/arm-none-eabi/include/c++/7.3.1/new **** void operator delete[](void*) _GLIBCXX_USE_NOEXCEPT
 127:/home/users/aag/code/gcc-arm-none-eabi-7-2018-q2-update/arm-none-eabi/include/c++/7.3.1/new ****   __attribute__((__externally_visible__));
 128:/home/users/aag/code/gcc-arm-none-eabi-7-2018-q2-update/arm-none-eabi/include/c++/7.3.1/new **** #if __cpp_sized_deallocation
 129:/home/users/aag/code/gcc-arm-none-eabi-7-2018-q2-update/arm-none-eabi/include/c++/7.3.1/new **** void operator delete(void*, std::size_t) _GLIBCXX_USE_NOEXCEPT
 130:/home/users/aag/code/gcc-arm-none-eabi-7-2018-q2-update/arm-none-eabi/include/c++/7.3.1/new ****   __attribute__((__externally_visible__));
 131:/home/users/aag/code/gcc-arm-none-eabi-7-2018-q2-update/arm-none-eabi/include/c++/7.3.1/new **** void operator delete[](void*, std::size_t) _GLIBCXX_USE_NOEXCEPT
 132:/home/users/aag/code/gcc-arm-none-eabi-7-2018-q2-update/arm-none-eabi/include/c++/7.3.1/new ****   __attribute__((__externally_visible__));
 133:/home/users/aag/code/gcc-arm-none-eabi-7-2018-q2-update/arm-none-eabi/include/c++/7.3.1/new **** #endif
 134:/home/users/aag/code/gcc-arm-none-eabi-7-2018-q2-update/arm-none-eabi/include/c++/7.3.1/new **** void* operator new(std::size_t, const std::nothrow_t&) _GLIBCXX_USE_NOEXCEPT
 135:/home/users/aag/code/gcc-arm-none-eabi-7-2018-q2-update/arm-none-eabi/include/c++/7.3.1/new ****   __attribute__((__externally_visible__));
 136:/home/users/aag/code/gcc-arm-none-eabi-7-2018-q2-update/arm-none-eabi/include/c++/7.3.1/new **** void* operator new[](std::size_t, const std::nothrow_t&) _GLIBCXX_USE_NOEXCEPT
 137:/home/users/aag/code/gcc-arm-none-eabi-7-2018-q2-update/arm-none-eabi/include/c++/7.3.1/new ****   __attribute__((__externally_visible__));
 138:/home/users/aag/code/gcc-arm-none-eabi-7-2018-q2-update/arm-none-eabi/include/c++/7.3.1/new **** void operator delete(void*, const std::nothrow_t&) _GLIBCXX_USE_NOEXCEPT
 139:/home/users/aag/code/gcc-arm-none-eabi-7-2018-q2-update/arm-none-eabi/include/c++/7.3.1/new ****   __attribute__((__externally_visible__));
 140:/home/users/aag/code/gcc-arm-none-eabi-7-2018-q2-update/arm-none-eabi/include/c++/7.3.1/new **** void operator delete[](void*, const std::nothrow_t&) _GLIBCXX_USE_NOEXCEPT
 141:/home/users/aag/code/gcc-arm-none-eabi-7-2018-q2-update/arm-none-eabi/include/c++/7.3.1/new ****   __attribute__((__externally_visible__));
 142:/home/users/aag/code/gcc-arm-none-eabi-7-2018-q2-update/arm-none-eabi/include/c++/7.3.1/new **** #if __cpp_aligned_new
 143:/home/users/aag/code/gcc-arm-none-eabi-7-2018-q2-update/arm-none-eabi/include/c++/7.3.1/new **** void* operator new(std::size_t, std::align_val_t)
 144:/home/users/aag/code/gcc-arm-none-eabi-7-2018-q2-update/arm-none-eabi/include/c++/7.3.1/new ****   __attribute__((__externally_visible__));
 145:/home/users/aag/code/gcc-arm-none-eabi-7-2018-q2-update/arm-none-eabi/include/c++/7.3.1/new **** void* operator new(std::size_t, std::align_val_t, const std::nothrow_t&)
 146:/home/users/aag/code/gcc-arm-none-eabi-7-2018-q2-update/arm-none-eabi/include/c++/7.3.1/new ****   _GLIBCXX_USE_NOEXCEPT __attribute__((__externally_visible__));
 147:/home/users/aag/code/gcc-arm-none-eabi-7-2018-q2-update/arm-none-eabi/include/c++/7.3.1/new **** void operator delete(void*, std::align_val_t)
 148:/home/users/aag/code/gcc-arm-none-eabi-7-2018-q2-update/arm-none-eabi/include/c++/7.3.1/new ****   _GLIBCXX_USE_NOEXCEPT __attribute__((__externally_visible__));
 149:/home/users/aag/code/gcc-arm-none-eabi-7-2018-q2-update/arm-none-eabi/include/c++/7.3.1/new **** void operator delete(void*, std::align_val_t, const std::nothrow_t&)
 150:/home/users/aag/code/gcc-arm-none-eabi-7-2018-q2-update/arm-none-eabi/include/c++/7.3.1/new ****   _GLIBCXX_USE_NOEXCEPT __attribute__((__externally_visible__));
 151:/home/users/aag/code/gcc-arm-none-eabi-7-2018-q2-update/arm-none-eabi/include/c++/7.3.1/new **** void* operator new[](std::size_t, std::align_val_t)
 152:/home/users/aag/code/gcc-arm-none-eabi-7-2018-q2-update/arm-none-eabi/include/c++/7.3.1/new ****   __attribute__((__externally_visible__));
 153:/home/users/aag/code/gcc-arm-none-eabi-7-2018-q2-update/arm-none-eabi/include/c++/7.3.1/new **** void* operator new[](std::size_t, std::align_val_t, const std::nothrow_t&)
 154:/home/users/aag/code/gcc-arm-none-eabi-7-2018-q2-update/arm-none-eabi/include/c++/7.3.1/new ****   _GLIBCXX_USE_NOEXCEPT __attribute__((__externally_visible__));
 155:/home/users/aag/code/gcc-arm-none-eabi-7-2018-q2-update/arm-none-eabi/include/c++/7.3.1/new **** void operator delete[](void*, std::align_val_t)
 156:/home/users/aag/code/gcc-arm-none-eabi-7-2018-q2-update/arm-none-eabi/include/c++/7.3.1/new ****   _GLIBCXX_USE_NOEXCEPT __attribute__((__externally_visible__));
 157:/home/users/aag/code/gcc-arm-none-eabi-7-2018-q2-update/arm-none-eabi/include/c++/7.3.1/new **** void operator delete[](void*, std::align_val_t, const std::nothrow_t&)
 158:/home/users/aag/code/gcc-arm-none-eabi-7-2018-q2-update/arm-none-eabi/include/c++/7.3.1/new ****   _GLIBCXX_USE_NOEXCEPT __attribute__((__externally_visible__));
 159:/home/users/aag/code/gcc-arm-none-eabi-7-2018-q2-update/arm-none-eabi/include/c++/7.3.1/new **** #if __cpp_sized_deallocation
 160:/home/users/aag/code/gcc-arm-none-eabi-7-2018-q2-update/arm-none-eabi/include/c++/7.3.1/new **** void operator delete(void*, std::size_t, std::align_val_t)
 161:/home/users/aag/code/gcc-arm-none-eabi-7-2018-q2-update/arm-none-eabi/include/c++/7.3.1/new ****   _GLIBCXX_USE_NOEXCEPT __attribute__((__externally_visible__));
 162:/home/users/aag/code/gcc-arm-none-eabi-7-2018-q2-update/arm-none-eabi/include/c++/7.3.1/new **** void operator delete[](void*, std::size_t, std::align_val_t)
 163:/home/users/aag/code/gcc-arm-none-eabi-7-2018-q2-update/arm-none-eabi/include/c++/7.3.1/new ****   _GLIBCXX_USE_NOEXCEPT __attribute__((__externally_visible__));
 164:/home/users/aag/code/gcc-arm-none-eabi-7-2018-q2-update/arm-none-eabi/include/c++/7.3.1/new **** #endif // __cpp_sized_deallocation
 165:/home/users/aag/code/gcc-arm-none-eabi-7-2018-q2-update/arm-none-eabi/include/c++/7.3.1/new **** #endif // __cpp_aligned_new
 166:/home/users/aag/code/gcc-arm-none-eabi-7-2018-q2-update/arm-none-eabi/include/c++/7.3.1/new **** 
 167:/home/users/aag/code/gcc-arm-none-eabi-7-2018-q2-update/arm-none-eabi/include/c++/7.3.1/new **** // Default placement versions of operator new.
 168:/home/users/aag/code/gcc-arm-none-eabi-7-2018-q2-update/arm-none-eabi/include/c++/7.3.1/new **** inline void* operator new(std::size_t, void* __p) _GLIBCXX_USE_NOEXCEPT
 169:/home/users/aag/code/gcc-arm-none-eabi-7-2018-q2-update/arm-none-eabi/include/c++/7.3.1/new **** { return __p; }
 781              		.loc 4 169 0
 782              		.cfi_startproc
 783              		@ args = 0, pretend = 0, frame = 8
 784              		@ frame_needed = 1, uses_anonymous_args = 0
ARM GAS  /tmp/cc03sYHg.s 			page 31


 785 0000 80B5     		push	{r7, lr}
 786              	.LCFI42:
 787              		.cfi_def_cfa_offset 8
 788              		.cfi_offset 7, -8
 789              		.cfi_offset 14, -4
 790 0002 82B0     		sub	sp, sp, #8
 791              	.LCFI43:
 792              		.cfi_def_cfa_offset 16
 793 0004 00AF     		add	r7, sp, #0
 794              	.LCFI44:
 795              		.cfi_def_cfa_register 7
 796 0006 7860     		str	r0, [r7, #4]
 797 0008 3960     		str	r1, [r7]
 798              		.loc 4 169 0
 799 000a 3B68     		ldr	r3, [r7]
 800 000c 1800     		movs	r0, r3
 801 000e BD46     		mov	sp, r7
 802 0010 02B0     		add	sp, sp, #8
 803              		@ sp needed
 804 0012 80BD     		pop	{r7, pc}
 805              		.cfi_endproc
 806              	.LFE247:
 808              		.section	.text._ZL20__gthread_key_deletei,"ax",%progbits
 809              		.align	1
 810              		.syntax unified
 811              		.code	16
 812              		.thumb_func
 813              		.fpu softvfp
 815              	_ZL20__gthread_key_deletei:
 816              	.LFB724:
 817              		.file 5 "/home/users/aag/code/gcc-arm-none-eabi-7-2018-q2-update/arm-none-eabi/include/c++/7.3.1/a
   1:/home/users/aag/code/gcc-arm-none-eabi-7-2018-q2-update/arm-none-eabi/include/c++/7.3.1/arm-none-eabi/thumb/v6-m/bits/gthr-default.h **** /* Threads compatibility routines for libgcc2 and libobjc.  */
   2:/home/users/aag/code/gcc-arm-none-eabi-7-2018-q2-update/arm-none-eabi/include/c++/7.3.1/arm-none-eabi/thumb/v6-m/bits/gthr-default.h **** /* Compile this one with gcc.  */
   3:/home/users/aag/code/gcc-arm-none-eabi-7-2018-q2-update/arm-none-eabi/include/c++/7.3.1/arm-none-eabi/thumb/v6-m/bits/gthr-default.h **** /* Copyright (C) 1997-2017 Free Software Foundation, Inc.
   4:/home/users/aag/code/gcc-arm-none-eabi-7-2018-q2-update/arm-none-eabi/include/c++/7.3.1/arm-none-eabi/thumb/v6-m/bits/gthr-default.h **** 
   5:/home/users/aag/code/gcc-arm-none-eabi-7-2018-q2-update/arm-none-eabi/include/c++/7.3.1/arm-none-eabi/thumb/v6-m/bits/gthr-default.h **** This file is part of GCC.
   6:/home/users/aag/code/gcc-arm-none-eabi-7-2018-q2-update/arm-none-eabi/include/c++/7.3.1/arm-none-eabi/thumb/v6-m/bits/gthr-default.h **** 
   7:/home/users/aag/code/gcc-arm-none-eabi-7-2018-q2-update/arm-none-eabi/include/c++/7.3.1/arm-none-eabi/thumb/v6-m/bits/gthr-default.h **** GCC is free software; you can redistribute it and/or modify it under
   8:/home/users/aag/code/gcc-arm-none-eabi-7-2018-q2-update/arm-none-eabi/include/c++/7.3.1/arm-none-eabi/thumb/v6-m/bits/gthr-default.h **** the terms of the GNU General Public License as published by the Free
   9:/home/users/aag/code/gcc-arm-none-eabi-7-2018-q2-update/arm-none-eabi/include/c++/7.3.1/arm-none-eabi/thumb/v6-m/bits/gthr-default.h **** Software Foundation; either version 3, or (at your option) any later
  10:/home/users/aag/code/gcc-arm-none-eabi-7-2018-q2-update/arm-none-eabi/include/c++/7.3.1/arm-none-eabi/thumb/v6-m/bits/gthr-default.h **** version.
  11:/home/users/aag/code/gcc-arm-none-eabi-7-2018-q2-update/arm-none-eabi/include/c++/7.3.1/arm-none-eabi/thumb/v6-m/bits/gthr-default.h **** 
  12:/home/users/aag/code/gcc-arm-none-eabi-7-2018-q2-update/arm-none-eabi/include/c++/7.3.1/arm-none-eabi/thumb/v6-m/bits/gthr-default.h **** GCC is distributed in the hope that it will be useful, but WITHOUT ANY
  13:/home/users/aag/code/gcc-arm-none-eabi-7-2018-q2-update/arm-none-eabi/include/c++/7.3.1/arm-none-eabi/thumb/v6-m/bits/gthr-default.h **** WARRANTY; without even the implied warranty of MERCHANTABILITY or
  14:/home/users/aag/code/gcc-arm-none-eabi-7-2018-q2-update/arm-none-eabi/include/c++/7.3.1/arm-none-eabi/thumb/v6-m/bits/gthr-default.h **** FITNESS FOR A PARTICULAR PURPOSE.  See the GNU General Public License
  15:/home/users/aag/code/gcc-arm-none-eabi-7-2018-q2-update/arm-none-eabi/include/c++/7.3.1/arm-none-eabi/thumb/v6-m/bits/gthr-default.h **** for more details.
  16:/home/users/aag/code/gcc-arm-none-eabi-7-2018-q2-update/arm-none-eabi/include/c++/7.3.1/arm-none-eabi/thumb/v6-m/bits/gthr-default.h **** 
  17:/home/users/aag/code/gcc-arm-none-eabi-7-2018-q2-update/arm-none-eabi/include/c++/7.3.1/arm-none-eabi/thumb/v6-m/bits/gthr-default.h **** Under Section 7 of GPL version 3, you are granted additional
  18:/home/users/aag/code/gcc-arm-none-eabi-7-2018-q2-update/arm-none-eabi/include/c++/7.3.1/arm-none-eabi/thumb/v6-m/bits/gthr-default.h **** permissions described in the GCC Runtime Library Exception, version
  19:/home/users/aag/code/gcc-arm-none-eabi-7-2018-q2-update/arm-none-eabi/include/c++/7.3.1/arm-none-eabi/thumb/v6-m/bits/gthr-default.h **** 3.1, as published by the Free Software Foundation.
  20:/home/users/aag/code/gcc-arm-none-eabi-7-2018-q2-update/arm-none-eabi/include/c++/7.3.1/arm-none-eabi/thumb/v6-m/bits/gthr-default.h **** 
  21:/home/users/aag/code/gcc-arm-none-eabi-7-2018-q2-update/arm-none-eabi/include/c++/7.3.1/arm-none-eabi/thumb/v6-m/bits/gthr-default.h **** You should have received a copy of the GNU General Public License and
  22:/home/users/aag/code/gcc-arm-none-eabi-7-2018-q2-update/arm-none-eabi/include/c++/7.3.1/arm-none-eabi/thumb/v6-m/bits/gthr-default.h **** a copy of the GCC Runtime Library Exception along with this program;
  23:/home/users/aag/code/gcc-arm-none-eabi-7-2018-q2-update/arm-none-eabi/include/c++/7.3.1/arm-none-eabi/thumb/v6-m/bits/gthr-default.h **** see the files COPYING3 and COPYING.RUNTIME respectively.  If not, see
  24:/home/users/aag/code/gcc-arm-none-eabi-7-2018-q2-update/arm-none-eabi/include/c++/7.3.1/arm-none-eabi/thumb/v6-m/bits/gthr-default.h **** <http://www.gnu.org/licenses/>.  */
  25:/home/users/aag/code/gcc-arm-none-eabi-7-2018-q2-update/arm-none-eabi/include/c++/7.3.1/arm-none-eabi/thumb/v6-m/bits/gthr-default.h **** 
  26:/home/users/aag/code/gcc-arm-none-eabi-7-2018-q2-update/arm-none-eabi/include/c++/7.3.1/arm-none-eabi/thumb/v6-m/bits/gthr-default.h **** #ifndef _GLIBCXX_GCC_GTHR_SINGLE_H
ARM GAS  /tmp/cc03sYHg.s 			page 32


  27:/home/users/aag/code/gcc-arm-none-eabi-7-2018-q2-update/arm-none-eabi/include/c++/7.3.1/arm-none-eabi/thumb/v6-m/bits/gthr-default.h **** #define _GLIBCXX_GCC_GTHR_SINGLE_H
  28:/home/users/aag/code/gcc-arm-none-eabi-7-2018-q2-update/arm-none-eabi/include/c++/7.3.1/arm-none-eabi/thumb/v6-m/bits/gthr-default.h **** 
  29:/home/users/aag/code/gcc-arm-none-eabi-7-2018-q2-update/arm-none-eabi/include/c++/7.3.1/arm-none-eabi/thumb/v6-m/bits/gthr-default.h **** /* Just provide compatibility for mutex handling.  */
  30:/home/users/aag/code/gcc-arm-none-eabi-7-2018-q2-update/arm-none-eabi/include/c++/7.3.1/arm-none-eabi/thumb/v6-m/bits/gthr-default.h **** 
  31:/home/users/aag/code/gcc-arm-none-eabi-7-2018-q2-update/arm-none-eabi/include/c++/7.3.1/arm-none-eabi/thumb/v6-m/bits/gthr-default.h **** typedef int __gthread_key_t;
  32:/home/users/aag/code/gcc-arm-none-eabi-7-2018-q2-update/arm-none-eabi/include/c++/7.3.1/arm-none-eabi/thumb/v6-m/bits/gthr-default.h **** typedef int __gthread_once_t;
  33:/home/users/aag/code/gcc-arm-none-eabi-7-2018-q2-update/arm-none-eabi/include/c++/7.3.1/arm-none-eabi/thumb/v6-m/bits/gthr-default.h **** typedef int __gthread_mutex_t;
  34:/home/users/aag/code/gcc-arm-none-eabi-7-2018-q2-update/arm-none-eabi/include/c++/7.3.1/arm-none-eabi/thumb/v6-m/bits/gthr-default.h **** typedef int __gthread_recursive_mutex_t;
  35:/home/users/aag/code/gcc-arm-none-eabi-7-2018-q2-update/arm-none-eabi/include/c++/7.3.1/arm-none-eabi/thumb/v6-m/bits/gthr-default.h **** 
  36:/home/users/aag/code/gcc-arm-none-eabi-7-2018-q2-update/arm-none-eabi/include/c++/7.3.1/arm-none-eabi/thumb/v6-m/bits/gthr-default.h **** #define __GTHREAD_ONCE_INIT 0
  37:/home/users/aag/code/gcc-arm-none-eabi-7-2018-q2-update/arm-none-eabi/include/c++/7.3.1/arm-none-eabi/thumb/v6-m/bits/gthr-default.h **** #define __GTHREAD_MUTEX_INIT 0
  38:/home/users/aag/code/gcc-arm-none-eabi-7-2018-q2-update/arm-none-eabi/include/c++/7.3.1/arm-none-eabi/thumb/v6-m/bits/gthr-default.h **** #define __GTHREAD_MUTEX_INIT_FUNCTION(mx) do {} while (0)
  39:/home/users/aag/code/gcc-arm-none-eabi-7-2018-q2-update/arm-none-eabi/include/c++/7.3.1/arm-none-eabi/thumb/v6-m/bits/gthr-default.h **** #define __GTHREAD_RECURSIVE_MUTEX_INIT 0
  40:/home/users/aag/code/gcc-arm-none-eabi-7-2018-q2-update/arm-none-eabi/include/c++/7.3.1/arm-none-eabi/thumb/v6-m/bits/gthr-default.h **** 
  41:/home/users/aag/code/gcc-arm-none-eabi-7-2018-q2-update/arm-none-eabi/include/c++/7.3.1/arm-none-eabi/thumb/v6-m/bits/gthr-default.h **** #define _GLIBCXX_UNUSED __attribute__((__unused__))
  42:/home/users/aag/code/gcc-arm-none-eabi-7-2018-q2-update/arm-none-eabi/include/c++/7.3.1/arm-none-eabi/thumb/v6-m/bits/gthr-default.h **** 
  43:/home/users/aag/code/gcc-arm-none-eabi-7-2018-q2-update/arm-none-eabi/include/c++/7.3.1/arm-none-eabi/thumb/v6-m/bits/gthr-default.h **** #ifdef _LIBOBJC
  44:/home/users/aag/code/gcc-arm-none-eabi-7-2018-q2-update/arm-none-eabi/include/c++/7.3.1/arm-none-eabi/thumb/v6-m/bits/gthr-default.h **** 
  45:/home/users/aag/code/gcc-arm-none-eabi-7-2018-q2-update/arm-none-eabi/include/c++/7.3.1/arm-none-eabi/thumb/v6-m/bits/gthr-default.h **** /* Thread local storage for a single thread */
  46:/home/users/aag/code/gcc-arm-none-eabi-7-2018-q2-update/arm-none-eabi/include/c++/7.3.1/arm-none-eabi/thumb/v6-m/bits/gthr-default.h **** static void *thread_local_storage = NULL;
  47:/home/users/aag/code/gcc-arm-none-eabi-7-2018-q2-update/arm-none-eabi/include/c++/7.3.1/arm-none-eabi/thumb/v6-m/bits/gthr-default.h **** 
  48:/home/users/aag/code/gcc-arm-none-eabi-7-2018-q2-update/arm-none-eabi/include/c++/7.3.1/arm-none-eabi/thumb/v6-m/bits/gthr-default.h **** /* Backend initialization functions */
  49:/home/users/aag/code/gcc-arm-none-eabi-7-2018-q2-update/arm-none-eabi/include/c++/7.3.1/arm-none-eabi/thumb/v6-m/bits/gthr-default.h **** 
  50:/home/users/aag/code/gcc-arm-none-eabi-7-2018-q2-update/arm-none-eabi/include/c++/7.3.1/arm-none-eabi/thumb/v6-m/bits/gthr-default.h **** /* Initialize the threads subsystem.  */
  51:/home/users/aag/code/gcc-arm-none-eabi-7-2018-q2-update/arm-none-eabi/include/c++/7.3.1/arm-none-eabi/thumb/v6-m/bits/gthr-default.h **** static inline int
  52:/home/users/aag/code/gcc-arm-none-eabi-7-2018-q2-update/arm-none-eabi/include/c++/7.3.1/arm-none-eabi/thumb/v6-m/bits/gthr-default.h **** __gthread_objc_init_thread_system (void)
  53:/home/users/aag/code/gcc-arm-none-eabi-7-2018-q2-update/arm-none-eabi/include/c++/7.3.1/arm-none-eabi/thumb/v6-m/bits/gthr-default.h **** {
  54:/home/users/aag/code/gcc-arm-none-eabi-7-2018-q2-update/arm-none-eabi/include/c++/7.3.1/arm-none-eabi/thumb/v6-m/bits/gthr-default.h ****   /* No thread support available */
  55:/home/users/aag/code/gcc-arm-none-eabi-7-2018-q2-update/arm-none-eabi/include/c++/7.3.1/arm-none-eabi/thumb/v6-m/bits/gthr-default.h ****   return -1;
  56:/home/users/aag/code/gcc-arm-none-eabi-7-2018-q2-update/arm-none-eabi/include/c++/7.3.1/arm-none-eabi/thumb/v6-m/bits/gthr-default.h **** }
  57:/home/users/aag/code/gcc-arm-none-eabi-7-2018-q2-update/arm-none-eabi/include/c++/7.3.1/arm-none-eabi/thumb/v6-m/bits/gthr-default.h **** 
  58:/home/users/aag/code/gcc-arm-none-eabi-7-2018-q2-update/arm-none-eabi/include/c++/7.3.1/arm-none-eabi/thumb/v6-m/bits/gthr-default.h **** /* Close the threads subsystem.  */
  59:/home/users/aag/code/gcc-arm-none-eabi-7-2018-q2-update/arm-none-eabi/include/c++/7.3.1/arm-none-eabi/thumb/v6-m/bits/gthr-default.h **** static inline int
  60:/home/users/aag/code/gcc-arm-none-eabi-7-2018-q2-update/arm-none-eabi/include/c++/7.3.1/arm-none-eabi/thumb/v6-m/bits/gthr-default.h **** __gthread_objc_close_thread_system (void)
  61:/home/users/aag/code/gcc-arm-none-eabi-7-2018-q2-update/arm-none-eabi/include/c++/7.3.1/arm-none-eabi/thumb/v6-m/bits/gthr-default.h **** {
  62:/home/users/aag/code/gcc-arm-none-eabi-7-2018-q2-update/arm-none-eabi/include/c++/7.3.1/arm-none-eabi/thumb/v6-m/bits/gthr-default.h ****   /* No thread support available */
  63:/home/users/aag/code/gcc-arm-none-eabi-7-2018-q2-update/arm-none-eabi/include/c++/7.3.1/arm-none-eabi/thumb/v6-m/bits/gthr-default.h ****   return -1;
  64:/home/users/aag/code/gcc-arm-none-eabi-7-2018-q2-update/arm-none-eabi/include/c++/7.3.1/arm-none-eabi/thumb/v6-m/bits/gthr-default.h **** }
  65:/home/users/aag/code/gcc-arm-none-eabi-7-2018-q2-update/arm-none-eabi/include/c++/7.3.1/arm-none-eabi/thumb/v6-m/bits/gthr-default.h **** 
  66:/home/users/aag/code/gcc-arm-none-eabi-7-2018-q2-update/arm-none-eabi/include/c++/7.3.1/arm-none-eabi/thumb/v6-m/bits/gthr-default.h **** /* Backend thread functions */
  67:/home/users/aag/code/gcc-arm-none-eabi-7-2018-q2-update/arm-none-eabi/include/c++/7.3.1/arm-none-eabi/thumb/v6-m/bits/gthr-default.h **** 
  68:/home/users/aag/code/gcc-arm-none-eabi-7-2018-q2-update/arm-none-eabi/include/c++/7.3.1/arm-none-eabi/thumb/v6-m/bits/gthr-default.h **** /* Create a new thread of execution.  */
  69:/home/users/aag/code/gcc-arm-none-eabi-7-2018-q2-update/arm-none-eabi/include/c++/7.3.1/arm-none-eabi/thumb/v6-m/bits/gthr-default.h **** static inline objc_thread_t
  70:/home/users/aag/code/gcc-arm-none-eabi-7-2018-q2-update/arm-none-eabi/include/c++/7.3.1/arm-none-eabi/thumb/v6-m/bits/gthr-default.h **** __gthread_objc_thread_detach (void (* func)(void *), void * arg _GLIBCXX_UNUSED)
  71:/home/users/aag/code/gcc-arm-none-eabi-7-2018-q2-update/arm-none-eabi/include/c++/7.3.1/arm-none-eabi/thumb/v6-m/bits/gthr-default.h **** {
  72:/home/users/aag/code/gcc-arm-none-eabi-7-2018-q2-update/arm-none-eabi/include/c++/7.3.1/arm-none-eabi/thumb/v6-m/bits/gthr-default.h ****   /* No thread support available */
  73:/home/users/aag/code/gcc-arm-none-eabi-7-2018-q2-update/arm-none-eabi/include/c++/7.3.1/arm-none-eabi/thumb/v6-m/bits/gthr-default.h ****   return NULL;
  74:/home/users/aag/code/gcc-arm-none-eabi-7-2018-q2-update/arm-none-eabi/include/c++/7.3.1/arm-none-eabi/thumb/v6-m/bits/gthr-default.h **** }
  75:/home/users/aag/code/gcc-arm-none-eabi-7-2018-q2-update/arm-none-eabi/include/c++/7.3.1/arm-none-eabi/thumb/v6-m/bits/gthr-default.h **** 
  76:/home/users/aag/code/gcc-arm-none-eabi-7-2018-q2-update/arm-none-eabi/include/c++/7.3.1/arm-none-eabi/thumb/v6-m/bits/gthr-default.h **** /* Set the current thread's priority.  */
  77:/home/users/aag/code/gcc-arm-none-eabi-7-2018-q2-update/arm-none-eabi/include/c++/7.3.1/arm-none-eabi/thumb/v6-m/bits/gthr-default.h **** static inline int
  78:/home/users/aag/code/gcc-arm-none-eabi-7-2018-q2-update/arm-none-eabi/include/c++/7.3.1/arm-none-eabi/thumb/v6-m/bits/gthr-default.h **** __gthread_objc_thread_set_priority (int priority _GLIBCXX_UNUSED)
  79:/home/users/aag/code/gcc-arm-none-eabi-7-2018-q2-update/arm-none-eabi/include/c++/7.3.1/arm-none-eabi/thumb/v6-m/bits/gthr-default.h **** {
  80:/home/users/aag/code/gcc-arm-none-eabi-7-2018-q2-update/arm-none-eabi/include/c++/7.3.1/arm-none-eabi/thumb/v6-m/bits/gthr-default.h ****   /* No thread support available */
  81:/home/users/aag/code/gcc-arm-none-eabi-7-2018-q2-update/arm-none-eabi/include/c++/7.3.1/arm-none-eabi/thumb/v6-m/bits/gthr-default.h ****   return -1;
  82:/home/users/aag/code/gcc-arm-none-eabi-7-2018-q2-update/arm-none-eabi/include/c++/7.3.1/arm-none-eabi/thumb/v6-m/bits/gthr-default.h **** }
  83:/home/users/aag/code/gcc-arm-none-eabi-7-2018-q2-update/arm-none-eabi/include/c++/7.3.1/arm-none-eabi/thumb/v6-m/bits/gthr-default.h **** 
ARM GAS  /tmp/cc03sYHg.s 			page 33


  84:/home/users/aag/code/gcc-arm-none-eabi-7-2018-q2-update/arm-none-eabi/include/c++/7.3.1/arm-none-eabi/thumb/v6-m/bits/gthr-default.h **** /* Return the current thread's priority.  */
  85:/home/users/aag/code/gcc-arm-none-eabi-7-2018-q2-update/arm-none-eabi/include/c++/7.3.1/arm-none-eabi/thumb/v6-m/bits/gthr-default.h **** static inline int
  86:/home/users/aag/code/gcc-arm-none-eabi-7-2018-q2-update/arm-none-eabi/include/c++/7.3.1/arm-none-eabi/thumb/v6-m/bits/gthr-default.h **** __gthread_objc_thread_get_priority (void)
  87:/home/users/aag/code/gcc-arm-none-eabi-7-2018-q2-update/arm-none-eabi/include/c++/7.3.1/arm-none-eabi/thumb/v6-m/bits/gthr-default.h **** {
  88:/home/users/aag/code/gcc-arm-none-eabi-7-2018-q2-update/arm-none-eabi/include/c++/7.3.1/arm-none-eabi/thumb/v6-m/bits/gthr-default.h ****   return OBJC_THREAD_INTERACTIVE_PRIORITY;
  89:/home/users/aag/code/gcc-arm-none-eabi-7-2018-q2-update/arm-none-eabi/include/c++/7.3.1/arm-none-eabi/thumb/v6-m/bits/gthr-default.h **** }
  90:/home/users/aag/code/gcc-arm-none-eabi-7-2018-q2-update/arm-none-eabi/include/c++/7.3.1/arm-none-eabi/thumb/v6-m/bits/gthr-default.h **** 
  91:/home/users/aag/code/gcc-arm-none-eabi-7-2018-q2-update/arm-none-eabi/include/c++/7.3.1/arm-none-eabi/thumb/v6-m/bits/gthr-default.h **** /* Yield our process time to another thread.  */
  92:/home/users/aag/code/gcc-arm-none-eabi-7-2018-q2-update/arm-none-eabi/include/c++/7.3.1/arm-none-eabi/thumb/v6-m/bits/gthr-default.h **** static inline void
  93:/home/users/aag/code/gcc-arm-none-eabi-7-2018-q2-update/arm-none-eabi/include/c++/7.3.1/arm-none-eabi/thumb/v6-m/bits/gthr-default.h **** __gthread_objc_thread_yield (void)
  94:/home/users/aag/code/gcc-arm-none-eabi-7-2018-q2-update/arm-none-eabi/include/c++/7.3.1/arm-none-eabi/thumb/v6-m/bits/gthr-default.h **** {
  95:/home/users/aag/code/gcc-arm-none-eabi-7-2018-q2-update/arm-none-eabi/include/c++/7.3.1/arm-none-eabi/thumb/v6-m/bits/gthr-default.h ****   return;
  96:/home/users/aag/code/gcc-arm-none-eabi-7-2018-q2-update/arm-none-eabi/include/c++/7.3.1/arm-none-eabi/thumb/v6-m/bits/gthr-default.h **** }
  97:/home/users/aag/code/gcc-arm-none-eabi-7-2018-q2-update/arm-none-eabi/include/c++/7.3.1/arm-none-eabi/thumb/v6-m/bits/gthr-default.h **** 
  98:/home/users/aag/code/gcc-arm-none-eabi-7-2018-q2-update/arm-none-eabi/include/c++/7.3.1/arm-none-eabi/thumb/v6-m/bits/gthr-default.h **** /* Terminate the current thread.  */
  99:/home/users/aag/code/gcc-arm-none-eabi-7-2018-q2-update/arm-none-eabi/include/c++/7.3.1/arm-none-eabi/thumb/v6-m/bits/gthr-default.h **** static inline int
 100:/home/users/aag/code/gcc-arm-none-eabi-7-2018-q2-update/arm-none-eabi/include/c++/7.3.1/arm-none-eabi/thumb/v6-m/bits/gthr-default.h **** __gthread_objc_thread_exit (void)
 101:/home/users/aag/code/gcc-arm-none-eabi-7-2018-q2-update/arm-none-eabi/include/c++/7.3.1/arm-none-eabi/thumb/v6-m/bits/gthr-default.h **** {
 102:/home/users/aag/code/gcc-arm-none-eabi-7-2018-q2-update/arm-none-eabi/include/c++/7.3.1/arm-none-eabi/thumb/v6-m/bits/gthr-default.h ****   /* No thread support available */
 103:/home/users/aag/code/gcc-arm-none-eabi-7-2018-q2-update/arm-none-eabi/include/c++/7.3.1/arm-none-eabi/thumb/v6-m/bits/gthr-default.h ****   /* Should we really exit the program */
 104:/home/users/aag/code/gcc-arm-none-eabi-7-2018-q2-update/arm-none-eabi/include/c++/7.3.1/arm-none-eabi/thumb/v6-m/bits/gthr-default.h ****   /* exit (&__objc_thread_exit_status); */
 105:/home/users/aag/code/gcc-arm-none-eabi-7-2018-q2-update/arm-none-eabi/include/c++/7.3.1/arm-none-eabi/thumb/v6-m/bits/gthr-default.h ****   return -1;
 106:/home/users/aag/code/gcc-arm-none-eabi-7-2018-q2-update/arm-none-eabi/include/c++/7.3.1/arm-none-eabi/thumb/v6-m/bits/gthr-default.h **** }
 107:/home/users/aag/code/gcc-arm-none-eabi-7-2018-q2-update/arm-none-eabi/include/c++/7.3.1/arm-none-eabi/thumb/v6-m/bits/gthr-default.h **** 
 108:/home/users/aag/code/gcc-arm-none-eabi-7-2018-q2-update/arm-none-eabi/include/c++/7.3.1/arm-none-eabi/thumb/v6-m/bits/gthr-default.h **** /* Returns an integer value which uniquely describes a thread.  */
 109:/home/users/aag/code/gcc-arm-none-eabi-7-2018-q2-update/arm-none-eabi/include/c++/7.3.1/arm-none-eabi/thumb/v6-m/bits/gthr-default.h **** static inline objc_thread_t
 110:/home/users/aag/code/gcc-arm-none-eabi-7-2018-q2-update/arm-none-eabi/include/c++/7.3.1/arm-none-eabi/thumb/v6-m/bits/gthr-default.h **** __gthread_objc_thread_id (void)
 111:/home/users/aag/code/gcc-arm-none-eabi-7-2018-q2-update/arm-none-eabi/include/c++/7.3.1/arm-none-eabi/thumb/v6-m/bits/gthr-default.h **** {
 112:/home/users/aag/code/gcc-arm-none-eabi-7-2018-q2-update/arm-none-eabi/include/c++/7.3.1/arm-none-eabi/thumb/v6-m/bits/gthr-default.h ****   /* No thread support, use 1.  */
 113:/home/users/aag/code/gcc-arm-none-eabi-7-2018-q2-update/arm-none-eabi/include/c++/7.3.1/arm-none-eabi/thumb/v6-m/bits/gthr-default.h ****   return (objc_thread_t) 1;
 114:/home/users/aag/code/gcc-arm-none-eabi-7-2018-q2-update/arm-none-eabi/include/c++/7.3.1/arm-none-eabi/thumb/v6-m/bits/gthr-default.h **** }
 115:/home/users/aag/code/gcc-arm-none-eabi-7-2018-q2-update/arm-none-eabi/include/c++/7.3.1/arm-none-eabi/thumb/v6-m/bits/gthr-default.h **** 
 116:/home/users/aag/code/gcc-arm-none-eabi-7-2018-q2-update/arm-none-eabi/include/c++/7.3.1/arm-none-eabi/thumb/v6-m/bits/gthr-default.h **** /* Sets the thread's local storage pointer.  */
 117:/home/users/aag/code/gcc-arm-none-eabi-7-2018-q2-update/arm-none-eabi/include/c++/7.3.1/arm-none-eabi/thumb/v6-m/bits/gthr-default.h **** static inline int
 118:/home/users/aag/code/gcc-arm-none-eabi-7-2018-q2-update/arm-none-eabi/include/c++/7.3.1/arm-none-eabi/thumb/v6-m/bits/gthr-default.h **** __gthread_objc_thread_set_data (void *value)
 119:/home/users/aag/code/gcc-arm-none-eabi-7-2018-q2-update/arm-none-eabi/include/c++/7.3.1/arm-none-eabi/thumb/v6-m/bits/gthr-default.h **** {
 120:/home/users/aag/code/gcc-arm-none-eabi-7-2018-q2-update/arm-none-eabi/include/c++/7.3.1/arm-none-eabi/thumb/v6-m/bits/gthr-default.h ****   thread_local_storage = value;
 121:/home/users/aag/code/gcc-arm-none-eabi-7-2018-q2-update/arm-none-eabi/include/c++/7.3.1/arm-none-eabi/thumb/v6-m/bits/gthr-default.h ****   return 0;
 122:/home/users/aag/code/gcc-arm-none-eabi-7-2018-q2-update/arm-none-eabi/include/c++/7.3.1/arm-none-eabi/thumb/v6-m/bits/gthr-default.h **** }
 123:/home/users/aag/code/gcc-arm-none-eabi-7-2018-q2-update/arm-none-eabi/include/c++/7.3.1/arm-none-eabi/thumb/v6-m/bits/gthr-default.h **** 
 124:/home/users/aag/code/gcc-arm-none-eabi-7-2018-q2-update/arm-none-eabi/include/c++/7.3.1/arm-none-eabi/thumb/v6-m/bits/gthr-default.h **** /* Returns the thread's local storage pointer.  */
 125:/home/users/aag/code/gcc-arm-none-eabi-7-2018-q2-update/arm-none-eabi/include/c++/7.3.1/arm-none-eabi/thumb/v6-m/bits/gthr-default.h **** static inline void *
 126:/home/users/aag/code/gcc-arm-none-eabi-7-2018-q2-update/arm-none-eabi/include/c++/7.3.1/arm-none-eabi/thumb/v6-m/bits/gthr-default.h **** __gthread_objc_thread_get_data (void)
 127:/home/users/aag/code/gcc-arm-none-eabi-7-2018-q2-update/arm-none-eabi/include/c++/7.3.1/arm-none-eabi/thumb/v6-m/bits/gthr-default.h **** {
 128:/home/users/aag/code/gcc-arm-none-eabi-7-2018-q2-update/arm-none-eabi/include/c++/7.3.1/arm-none-eabi/thumb/v6-m/bits/gthr-default.h ****   return thread_local_storage;
 129:/home/users/aag/code/gcc-arm-none-eabi-7-2018-q2-update/arm-none-eabi/include/c++/7.3.1/arm-none-eabi/thumb/v6-m/bits/gthr-default.h **** }
 130:/home/users/aag/code/gcc-arm-none-eabi-7-2018-q2-update/arm-none-eabi/include/c++/7.3.1/arm-none-eabi/thumb/v6-m/bits/gthr-default.h **** 
 131:/home/users/aag/code/gcc-arm-none-eabi-7-2018-q2-update/arm-none-eabi/include/c++/7.3.1/arm-none-eabi/thumb/v6-m/bits/gthr-default.h **** /* Backend mutex functions */
 132:/home/users/aag/code/gcc-arm-none-eabi-7-2018-q2-update/arm-none-eabi/include/c++/7.3.1/arm-none-eabi/thumb/v6-m/bits/gthr-default.h **** 
 133:/home/users/aag/code/gcc-arm-none-eabi-7-2018-q2-update/arm-none-eabi/include/c++/7.3.1/arm-none-eabi/thumb/v6-m/bits/gthr-default.h **** /* Allocate a mutex.  */
 134:/home/users/aag/code/gcc-arm-none-eabi-7-2018-q2-update/arm-none-eabi/include/c++/7.3.1/arm-none-eabi/thumb/v6-m/bits/gthr-default.h **** static inline int
 135:/home/users/aag/code/gcc-arm-none-eabi-7-2018-q2-update/arm-none-eabi/include/c++/7.3.1/arm-none-eabi/thumb/v6-m/bits/gthr-default.h **** __gthread_objc_mutex_allocate (objc_mutex_t mutex _GLIBCXX_UNUSED)
 136:/home/users/aag/code/gcc-arm-none-eabi-7-2018-q2-update/arm-none-eabi/include/c++/7.3.1/arm-none-eabi/thumb/v6-m/bits/gthr-default.h **** {
 137:/home/users/aag/code/gcc-arm-none-eabi-7-2018-q2-update/arm-none-eabi/include/c++/7.3.1/arm-none-eabi/thumb/v6-m/bits/gthr-default.h ****   return 0;
 138:/home/users/aag/code/gcc-arm-none-eabi-7-2018-q2-update/arm-none-eabi/include/c++/7.3.1/arm-none-eabi/thumb/v6-m/bits/gthr-default.h **** }
 139:/home/users/aag/code/gcc-arm-none-eabi-7-2018-q2-update/arm-none-eabi/include/c++/7.3.1/arm-none-eabi/thumb/v6-m/bits/gthr-default.h **** 
 140:/home/users/aag/code/gcc-arm-none-eabi-7-2018-q2-update/arm-none-eabi/include/c++/7.3.1/arm-none-eabi/thumb/v6-m/bits/gthr-default.h **** /* Deallocate a mutex.  */
ARM GAS  /tmp/cc03sYHg.s 			page 34


 141:/home/users/aag/code/gcc-arm-none-eabi-7-2018-q2-update/arm-none-eabi/include/c++/7.3.1/arm-none-eabi/thumb/v6-m/bits/gthr-default.h **** static inline int
 142:/home/users/aag/code/gcc-arm-none-eabi-7-2018-q2-update/arm-none-eabi/include/c++/7.3.1/arm-none-eabi/thumb/v6-m/bits/gthr-default.h **** __gthread_objc_mutex_deallocate (objc_mutex_t mutex _GLIBCXX_UNUSED)
 143:/home/users/aag/code/gcc-arm-none-eabi-7-2018-q2-update/arm-none-eabi/include/c++/7.3.1/arm-none-eabi/thumb/v6-m/bits/gthr-default.h **** {
 144:/home/users/aag/code/gcc-arm-none-eabi-7-2018-q2-update/arm-none-eabi/include/c++/7.3.1/arm-none-eabi/thumb/v6-m/bits/gthr-default.h ****   return 0;
 145:/home/users/aag/code/gcc-arm-none-eabi-7-2018-q2-update/arm-none-eabi/include/c++/7.3.1/arm-none-eabi/thumb/v6-m/bits/gthr-default.h **** }
 146:/home/users/aag/code/gcc-arm-none-eabi-7-2018-q2-update/arm-none-eabi/include/c++/7.3.1/arm-none-eabi/thumb/v6-m/bits/gthr-default.h **** 
 147:/home/users/aag/code/gcc-arm-none-eabi-7-2018-q2-update/arm-none-eabi/include/c++/7.3.1/arm-none-eabi/thumb/v6-m/bits/gthr-default.h **** /* Grab a lock on a mutex.  */
 148:/home/users/aag/code/gcc-arm-none-eabi-7-2018-q2-update/arm-none-eabi/include/c++/7.3.1/arm-none-eabi/thumb/v6-m/bits/gthr-default.h **** static inline int
 149:/home/users/aag/code/gcc-arm-none-eabi-7-2018-q2-update/arm-none-eabi/include/c++/7.3.1/arm-none-eabi/thumb/v6-m/bits/gthr-default.h **** __gthread_objc_mutex_lock (objc_mutex_t mutex _GLIBCXX_UNUSED)
 150:/home/users/aag/code/gcc-arm-none-eabi-7-2018-q2-update/arm-none-eabi/include/c++/7.3.1/arm-none-eabi/thumb/v6-m/bits/gthr-default.h **** {
 151:/home/users/aag/code/gcc-arm-none-eabi-7-2018-q2-update/arm-none-eabi/include/c++/7.3.1/arm-none-eabi/thumb/v6-m/bits/gthr-default.h ****   /* There can only be one thread, so we always get the lock */
 152:/home/users/aag/code/gcc-arm-none-eabi-7-2018-q2-update/arm-none-eabi/include/c++/7.3.1/arm-none-eabi/thumb/v6-m/bits/gthr-default.h ****   return 0;
 153:/home/users/aag/code/gcc-arm-none-eabi-7-2018-q2-update/arm-none-eabi/include/c++/7.3.1/arm-none-eabi/thumb/v6-m/bits/gthr-default.h **** }
 154:/home/users/aag/code/gcc-arm-none-eabi-7-2018-q2-update/arm-none-eabi/include/c++/7.3.1/arm-none-eabi/thumb/v6-m/bits/gthr-default.h **** 
 155:/home/users/aag/code/gcc-arm-none-eabi-7-2018-q2-update/arm-none-eabi/include/c++/7.3.1/arm-none-eabi/thumb/v6-m/bits/gthr-default.h **** /* Try to grab a lock on a mutex.  */
 156:/home/users/aag/code/gcc-arm-none-eabi-7-2018-q2-update/arm-none-eabi/include/c++/7.3.1/arm-none-eabi/thumb/v6-m/bits/gthr-default.h **** static inline int
 157:/home/users/aag/code/gcc-arm-none-eabi-7-2018-q2-update/arm-none-eabi/include/c++/7.3.1/arm-none-eabi/thumb/v6-m/bits/gthr-default.h **** __gthread_objc_mutex_trylock (objc_mutex_t mutex _GLIBCXX_UNUSED)
 158:/home/users/aag/code/gcc-arm-none-eabi-7-2018-q2-update/arm-none-eabi/include/c++/7.3.1/arm-none-eabi/thumb/v6-m/bits/gthr-default.h **** {
 159:/home/users/aag/code/gcc-arm-none-eabi-7-2018-q2-update/arm-none-eabi/include/c++/7.3.1/arm-none-eabi/thumb/v6-m/bits/gthr-default.h ****   /* There can only be one thread, so we always get the lock */
 160:/home/users/aag/code/gcc-arm-none-eabi-7-2018-q2-update/arm-none-eabi/include/c++/7.3.1/arm-none-eabi/thumb/v6-m/bits/gthr-default.h ****   return 0;
 161:/home/users/aag/code/gcc-arm-none-eabi-7-2018-q2-update/arm-none-eabi/include/c++/7.3.1/arm-none-eabi/thumb/v6-m/bits/gthr-default.h **** }
 162:/home/users/aag/code/gcc-arm-none-eabi-7-2018-q2-update/arm-none-eabi/include/c++/7.3.1/arm-none-eabi/thumb/v6-m/bits/gthr-default.h **** 
 163:/home/users/aag/code/gcc-arm-none-eabi-7-2018-q2-update/arm-none-eabi/include/c++/7.3.1/arm-none-eabi/thumb/v6-m/bits/gthr-default.h **** /* Unlock the mutex */
 164:/home/users/aag/code/gcc-arm-none-eabi-7-2018-q2-update/arm-none-eabi/include/c++/7.3.1/arm-none-eabi/thumb/v6-m/bits/gthr-default.h **** static inline int
 165:/home/users/aag/code/gcc-arm-none-eabi-7-2018-q2-update/arm-none-eabi/include/c++/7.3.1/arm-none-eabi/thumb/v6-m/bits/gthr-default.h **** __gthread_objc_mutex_unlock (objc_mutex_t mutex _GLIBCXX_UNUSED)
 166:/home/users/aag/code/gcc-arm-none-eabi-7-2018-q2-update/arm-none-eabi/include/c++/7.3.1/arm-none-eabi/thumb/v6-m/bits/gthr-default.h **** {
 167:/home/users/aag/code/gcc-arm-none-eabi-7-2018-q2-update/arm-none-eabi/include/c++/7.3.1/arm-none-eabi/thumb/v6-m/bits/gthr-default.h ****   return 0;
 168:/home/users/aag/code/gcc-arm-none-eabi-7-2018-q2-update/arm-none-eabi/include/c++/7.3.1/arm-none-eabi/thumb/v6-m/bits/gthr-default.h **** }
 169:/home/users/aag/code/gcc-arm-none-eabi-7-2018-q2-update/arm-none-eabi/include/c++/7.3.1/arm-none-eabi/thumb/v6-m/bits/gthr-default.h **** 
 170:/home/users/aag/code/gcc-arm-none-eabi-7-2018-q2-update/arm-none-eabi/include/c++/7.3.1/arm-none-eabi/thumb/v6-m/bits/gthr-default.h **** /* Backend condition mutex functions */
 171:/home/users/aag/code/gcc-arm-none-eabi-7-2018-q2-update/arm-none-eabi/include/c++/7.3.1/arm-none-eabi/thumb/v6-m/bits/gthr-default.h **** 
 172:/home/users/aag/code/gcc-arm-none-eabi-7-2018-q2-update/arm-none-eabi/include/c++/7.3.1/arm-none-eabi/thumb/v6-m/bits/gthr-default.h **** /* Allocate a condition.  */
 173:/home/users/aag/code/gcc-arm-none-eabi-7-2018-q2-update/arm-none-eabi/include/c++/7.3.1/arm-none-eabi/thumb/v6-m/bits/gthr-default.h **** static inline int
 174:/home/users/aag/code/gcc-arm-none-eabi-7-2018-q2-update/arm-none-eabi/include/c++/7.3.1/arm-none-eabi/thumb/v6-m/bits/gthr-default.h **** __gthread_objc_condition_allocate (objc_condition_t condition _GLIBCXX_UNUSED)
 175:/home/users/aag/code/gcc-arm-none-eabi-7-2018-q2-update/arm-none-eabi/include/c++/7.3.1/arm-none-eabi/thumb/v6-m/bits/gthr-default.h **** {
 176:/home/users/aag/code/gcc-arm-none-eabi-7-2018-q2-update/arm-none-eabi/include/c++/7.3.1/arm-none-eabi/thumb/v6-m/bits/gthr-default.h ****   return 0;
 177:/home/users/aag/code/gcc-arm-none-eabi-7-2018-q2-update/arm-none-eabi/include/c++/7.3.1/arm-none-eabi/thumb/v6-m/bits/gthr-default.h **** }
 178:/home/users/aag/code/gcc-arm-none-eabi-7-2018-q2-update/arm-none-eabi/include/c++/7.3.1/arm-none-eabi/thumb/v6-m/bits/gthr-default.h **** 
 179:/home/users/aag/code/gcc-arm-none-eabi-7-2018-q2-update/arm-none-eabi/include/c++/7.3.1/arm-none-eabi/thumb/v6-m/bits/gthr-default.h **** /* Deallocate a condition.  */
 180:/home/users/aag/code/gcc-arm-none-eabi-7-2018-q2-update/arm-none-eabi/include/c++/7.3.1/arm-none-eabi/thumb/v6-m/bits/gthr-default.h **** static inline int
 181:/home/users/aag/code/gcc-arm-none-eabi-7-2018-q2-update/arm-none-eabi/include/c++/7.3.1/arm-none-eabi/thumb/v6-m/bits/gthr-default.h **** __gthread_objc_condition_deallocate (objc_condition_t condition _GLIBCXX_UNUSED)
 182:/home/users/aag/code/gcc-arm-none-eabi-7-2018-q2-update/arm-none-eabi/include/c++/7.3.1/arm-none-eabi/thumb/v6-m/bits/gthr-default.h **** {
 183:/home/users/aag/code/gcc-arm-none-eabi-7-2018-q2-update/arm-none-eabi/include/c++/7.3.1/arm-none-eabi/thumb/v6-m/bits/gthr-default.h ****   return 0;
 184:/home/users/aag/code/gcc-arm-none-eabi-7-2018-q2-update/arm-none-eabi/include/c++/7.3.1/arm-none-eabi/thumb/v6-m/bits/gthr-default.h **** }
 185:/home/users/aag/code/gcc-arm-none-eabi-7-2018-q2-update/arm-none-eabi/include/c++/7.3.1/arm-none-eabi/thumb/v6-m/bits/gthr-default.h **** 
 186:/home/users/aag/code/gcc-arm-none-eabi-7-2018-q2-update/arm-none-eabi/include/c++/7.3.1/arm-none-eabi/thumb/v6-m/bits/gthr-default.h **** /* Wait on the condition */
 187:/home/users/aag/code/gcc-arm-none-eabi-7-2018-q2-update/arm-none-eabi/include/c++/7.3.1/arm-none-eabi/thumb/v6-m/bits/gthr-default.h **** static inline int
 188:/home/users/aag/code/gcc-arm-none-eabi-7-2018-q2-update/arm-none-eabi/include/c++/7.3.1/arm-none-eabi/thumb/v6-m/bits/gthr-default.h **** __gthread_objc_condition_wait (objc_condition_t condition _GLIBCXX_UNUSED,
 189:/home/users/aag/code/gcc-arm-none-eabi-7-2018-q2-update/arm-none-eabi/include/c++/7.3.1/arm-none-eabi/thumb/v6-m/bits/gthr-default.h **** 			       objc_mutex_t mutex _GLIBCXX_UNUSED)
 190:/home/users/aag/code/gcc-arm-none-eabi-7-2018-q2-update/arm-none-eabi/include/c++/7.3.1/arm-none-eabi/thumb/v6-m/bits/gthr-default.h **** {
 191:/home/users/aag/code/gcc-arm-none-eabi-7-2018-q2-update/arm-none-eabi/include/c++/7.3.1/arm-none-eabi/thumb/v6-m/bits/gthr-default.h ****   return 0;
 192:/home/users/aag/code/gcc-arm-none-eabi-7-2018-q2-update/arm-none-eabi/include/c++/7.3.1/arm-none-eabi/thumb/v6-m/bits/gthr-default.h **** }
 193:/home/users/aag/code/gcc-arm-none-eabi-7-2018-q2-update/arm-none-eabi/include/c++/7.3.1/arm-none-eabi/thumb/v6-m/bits/gthr-default.h **** 
 194:/home/users/aag/code/gcc-arm-none-eabi-7-2018-q2-update/arm-none-eabi/include/c++/7.3.1/arm-none-eabi/thumb/v6-m/bits/gthr-default.h **** /* Wake up all threads waiting on this condition.  */
 195:/home/users/aag/code/gcc-arm-none-eabi-7-2018-q2-update/arm-none-eabi/include/c++/7.3.1/arm-none-eabi/thumb/v6-m/bits/gthr-default.h **** static inline int
 196:/home/users/aag/code/gcc-arm-none-eabi-7-2018-q2-update/arm-none-eabi/include/c++/7.3.1/arm-none-eabi/thumb/v6-m/bits/gthr-default.h **** __gthread_objc_condition_broadcast (objc_condition_t condition _GLIBCXX_UNUSED)
 197:/home/users/aag/code/gcc-arm-none-eabi-7-2018-q2-update/arm-none-eabi/include/c++/7.3.1/arm-none-eabi/thumb/v6-m/bits/gthr-default.h **** {
ARM GAS  /tmp/cc03sYHg.s 			page 35


 198:/home/users/aag/code/gcc-arm-none-eabi-7-2018-q2-update/arm-none-eabi/include/c++/7.3.1/arm-none-eabi/thumb/v6-m/bits/gthr-default.h ****   return 0;
 199:/home/users/aag/code/gcc-arm-none-eabi-7-2018-q2-update/arm-none-eabi/include/c++/7.3.1/arm-none-eabi/thumb/v6-m/bits/gthr-default.h **** }
 200:/home/users/aag/code/gcc-arm-none-eabi-7-2018-q2-update/arm-none-eabi/include/c++/7.3.1/arm-none-eabi/thumb/v6-m/bits/gthr-default.h **** 
 201:/home/users/aag/code/gcc-arm-none-eabi-7-2018-q2-update/arm-none-eabi/include/c++/7.3.1/arm-none-eabi/thumb/v6-m/bits/gthr-default.h **** /* Wake up one thread waiting on this condition.  */
 202:/home/users/aag/code/gcc-arm-none-eabi-7-2018-q2-update/arm-none-eabi/include/c++/7.3.1/arm-none-eabi/thumb/v6-m/bits/gthr-default.h **** static inline int
 203:/home/users/aag/code/gcc-arm-none-eabi-7-2018-q2-update/arm-none-eabi/include/c++/7.3.1/arm-none-eabi/thumb/v6-m/bits/gthr-default.h **** __gthread_objc_condition_signal (objc_condition_t condition _GLIBCXX_UNUSED)
 204:/home/users/aag/code/gcc-arm-none-eabi-7-2018-q2-update/arm-none-eabi/include/c++/7.3.1/arm-none-eabi/thumb/v6-m/bits/gthr-default.h **** {
 205:/home/users/aag/code/gcc-arm-none-eabi-7-2018-q2-update/arm-none-eabi/include/c++/7.3.1/arm-none-eabi/thumb/v6-m/bits/gthr-default.h ****   return 0;
 206:/home/users/aag/code/gcc-arm-none-eabi-7-2018-q2-update/arm-none-eabi/include/c++/7.3.1/arm-none-eabi/thumb/v6-m/bits/gthr-default.h **** }
 207:/home/users/aag/code/gcc-arm-none-eabi-7-2018-q2-update/arm-none-eabi/include/c++/7.3.1/arm-none-eabi/thumb/v6-m/bits/gthr-default.h **** 
 208:/home/users/aag/code/gcc-arm-none-eabi-7-2018-q2-update/arm-none-eabi/include/c++/7.3.1/arm-none-eabi/thumb/v6-m/bits/gthr-default.h **** #else /* _LIBOBJC */
 209:/home/users/aag/code/gcc-arm-none-eabi-7-2018-q2-update/arm-none-eabi/include/c++/7.3.1/arm-none-eabi/thumb/v6-m/bits/gthr-default.h **** 
 210:/home/users/aag/code/gcc-arm-none-eabi-7-2018-q2-update/arm-none-eabi/include/c++/7.3.1/arm-none-eabi/thumb/v6-m/bits/gthr-default.h **** static inline int
 211:/home/users/aag/code/gcc-arm-none-eabi-7-2018-q2-update/arm-none-eabi/include/c++/7.3.1/arm-none-eabi/thumb/v6-m/bits/gthr-default.h **** __gthread_active_p (void)
 212:/home/users/aag/code/gcc-arm-none-eabi-7-2018-q2-update/arm-none-eabi/include/c++/7.3.1/arm-none-eabi/thumb/v6-m/bits/gthr-default.h **** {
 213:/home/users/aag/code/gcc-arm-none-eabi-7-2018-q2-update/arm-none-eabi/include/c++/7.3.1/arm-none-eabi/thumb/v6-m/bits/gthr-default.h ****   return 0;
 214:/home/users/aag/code/gcc-arm-none-eabi-7-2018-q2-update/arm-none-eabi/include/c++/7.3.1/arm-none-eabi/thumb/v6-m/bits/gthr-default.h **** }
 215:/home/users/aag/code/gcc-arm-none-eabi-7-2018-q2-update/arm-none-eabi/include/c++/7.3.1/arm-none-eabi/thumb/v6-m/bits/gthr-default.h **** 
 216:/home/users/aag/code/gcc-arm-none-eabi-7-2018-q2-update/arm-none-eabi/include/c++/7.3.1/arm-none-eabi/thumb/v6-m/bits/gthr-default.h **** static inline int
 217:/home/users/aag/code/gcc-arm-none-eabi-7-2018-q2-update/arm-none-eabi/include/c++/7.3.1/arm-none-eabi/thumb/v6-m/bits/gthr-default.h **** __gthread_once (__gthread_once_t *__once _GLIBCXX_UNUSED, void (*__func) (void) _GLIBCXX_UNUSED)
 218:/home/users/aag/code/gcc-arm-none-eabi-7-2018-q2-update/arm-none-eabi/include/c++/7.3.1/arm-none-eabi/thumb/v6-m/bits/gthr-default.h **** {
 219:/home/users/aag/code/gcc-arm-none-eabi-7-2018-q2-update/arm-none-eabi/include/c++/7.3.1/arm-none-eabi/thumb/v6-m/bits/gthr-default.h ****   return 0;
 220:/home/users/aag/code/gcc-arm-none-eabi-7-2018-q2-update/arm-none-eabi/include/c++/7.3.1/arm-none-eabi/thumb/v6-m/bits/gthr-default.h **** }
 221:/home/users/aag/code/gcc-arm-none-eabi-7-2018-q2-update/arm-none-eabi/include/c++/7.3.1/arm-none-eabi/thumb/v6-m/bits/gthr-default.h **** 
 222:/home/users/aag/code/gcc-arm-none-eabi-7-2018-q2-update/arm-none-eabi/include/c++/7.3.1/arm-none-eabi/thumb/v6-m/bits/gthr-default.h **** static inline int _GLIBCXX_UNUSED
 223:/home/users/aag/code/gcc-arm-none-eabi-7-2018-q2-update/arm-none-eabi/include/c++/7.3.1/arm-none-eabi/thumb/v6-m/bits/gthr-default.h **** __gthread_key_create (__gthread_key_t *__key _GLIBCXX_UNUSED, void (*__func) (void *) _GLIBCXX_UNUS
 224:/home/users/aag/code/gcc-arm-none-eabi-7-2018-q2-update/arm-none-eabi/include/c++/7.3.1/arm-none-eabi/thumb/v6-m/bits/gthr-default.h **** {
 225:/home/users/aag/code/gcc-arm-none-eabi-7-2018-q2-update/arm-none-eabi/include/c++/7.3.1/arm-none-eabi/thumb/v6-m/bits/gthr-default.h ****   return 0;
 226:/home/users/aag/code/gcc-arm-none-eabi-7-2018-q2-update/arm-none-eabi/include/c++/7.3.1/arm-none-eabi/thumb/v6-m/bits/gthr-default.h **** }
 227:/home/users/aag/code/gcc-arm-none-eabi-7-2018-q2-update/arm-none-eabi/include/c++/7.3.1/arm-none-eabi/thumb/v6-m/bits/gthr-default.h **** 
 228:/home/users/aag/code/gcc-arm-none-eabi-7-2018-q2-update/arm-none-eabi/include/c++/7.3.1/arm-none-eabi/thumb/v6-m/bits/gthr-default.h **** static int _GLIBCXX_UNUSED
 229:/home/users/aag/code/gcc-arm-none-eabi-7-2018-q2-update/arm-none-eabi/include/c++/7.3.1/arm-none-eabi/thumb/v6-m/bits/gthr-default.h **** __gthread_key_delete (__gthread_key_t __key _GLIBCXX_UNUSED)
 230:/home/users/aag/code/gcc-arm-none-eabi-7-2018-q2-update/arm-none-eabi/include/c++/7.3.1/arm-none-eabi/thumb/v6-m/bits/gthr-default.h **** {
 818              		.loc 5 230 0
 819              		.cfi_startproc
 820              		@ args = 0, pretend = 0, frame = 8
 821              		@ frame_needed = 1, uses_anonymous_args = 0
 822 0000 80B5     		push	{r7, lr}
 823              	.LCFI45:
 824              		.cfi_def_cfa_offset 8
 825              		.cfi_offset 7, -8
 826              		.cfi_offset 14, -4
 827 0002 82B0     		sub	sp, sp, #8
 828              	.LCFI46:
 829              		.cfi_def_cfa_offset 16
 830 0004 00AF     		add	r7, sp, #0
 831              	.LCFI47:
 832              		.cfi_def_cfa_register 7
 833 0006 7860     		str	r0, [r7, #4]
 231:/home/users/aag/code/gcc-arm-none-eabi-7-2018-q2-update/arm-none-eabi/include/c++/7.3.1/arm-none-eabi/thumb/v6-m/bits/gthr-default.h ****   return 0;
 834              		.loc 5 231 0
 835 0008 0023     		movs	r3, #0
 232:/home/users/aag/code/gcc-arm-none-eabi-7-2018-q2-update/arm-none-eabi/include/c++/7.3.1/arm-none-eabi/thumb/v6-m/bits/gthr-default.h **** }
 836              		.loc 5 232 0
 837 000a 1800     		movs	r0, r3
 838 000c BD46     		mov	sp, r7
 839 000e 02B0     		add	sp, sp, #8
ARM GAS  /tmp/cc03sYHg.s 			page 36


 840              		@ sp needed
 841 0010 80BD     		pop	{r7, pc}
 842              		.cfi_endproc
 843              	.LFE724:
 845              		.section	.text._ZSt3minIjERKT_S2_S2_,"axG",%progbits,_ZSt3minIjERKT_S2_S2_,comdat
 846              		.align	1
 847              		.weak	_ZSt3minIjERKT_S2_S2_
 848              		.syntax unified
 849              		.code	16
 850              		.thumb_func
 851              		.fpu softvfp
 853              	_ZSt3minIjERKT_S2_S2_:
 854              	.LFB1721:
 855              		.file 6 "/home/users/aag/code/gcc-arm-none-eabi-7-2018-q2-update/arm-none-eabi/include/c++/7.3.1/b
   1:/home/users/aag/code/gcc-arm-none-eabi-7-2018-q2-update/arm-none-eabi/include/c++/7.3.1/bits/stl_algobase.h **** // Core algorithmic facilities -*- C++ -*-
   2:/home/users/aag/code/gcc-arm-none-eabi-7-2018-q2-update/arm-none-eabi/include/c++/7.3.1/bits/stl_algobase.h **** 
   3:/home/users/aag/code/gcc-arm-none-eabi-7-2018-q2-update/arm-none-eabi/include/c++/7.3.1/bits/stl_algobase.h **** // Copyright (C) 2001-2017 Free Software Foundation, Inc.
   4:/home/users/aag/code/gcc-arm-none-eabi-7-2018-q2-update/arm-none-eabi/include/c++/7.3.1/bits/stl_algobase.h **** //
   5:/home/users/aag/code/gcc-arm-none-eabi-7-2018-q2-update/arm-none-eabi/include/c++/7.3.1/bits/stl_algobase.h **** // This file is part of the GNU ISO C++ Library.  This library is free
   6:/home/users/aag/code/gcc-arm-none-eabi-7-2018-q2-update/arm-none-eabi/include/c++/7.3.1/bits/stl_algobase.h **** // software; you can redistribute it and/or modify it under the
   7:/home/users/aag/code/gcc-arm-none-eabi-7-2018-q2-update/arm-none-eabi/include/c++/7.3.1/bits/stl_algobase.h **** // terms of the GNU General Public License as published by the
   8:/home/users/aag/code/gcc-arm-none-eabi-7-2018-q2-update/arm-none-eabi/include/c++/7.3.1/bits/stl_algobase.h **** // Free Software Foundation; either version 3, or (at your option)
   9:/home/users/aag/code/gcc-arm-none-eabi-7-2018-q2-update/arm-none-eabi/include/c++/7.3.1/bits/stl_algobase.h **** // any later version.
  10:/home/users/aag/code/gcc-arm-none-eabi-7-2018-q2-update/arm-none-eabi/include/c++/7.3.1/bits/stl_algobase.h **** 
  11:/home/users/aag/code/gcc-arm-none-eabi-7-2018-q2-update/arm-none-eabi/include/c++/7.3.1/bits/stl_algobase.h **** // This library is distributed in the hope that it will be useful,
  12:/home/users/aag/code/gcc-arm-none-eabi-7-2018-q2-update/arm-none-eabi/include/c++/7.3.1/bits/stl_algobase.h **** // but WITHOUT ANY WARRANTY; without even the implied warranty of
  13:/home/users/aag/code/gcc-arm-none-eabi-7-2018-q2-update/arm-none-eabi/include/c++/7.3.1/bits/stl_algobase.h **** // MERCHANTABILITY or FITNESS FOR A PARTICULAR PURPOSE.  See the
  14:/home/users/aag/code/gcc-arm-none-eabi-7-2018-q2-update/arm-none-eabi/include/c++/7.3.1/bits/stl_algobase.h **** // GNU General Public License for more details.
  15:/home/users/aag/code/gcc-arm-none-eabi-7-2018-q2-update/arm-none-eabi/include/c++/7.3.1/bits/stl_algobase.h **** 
  16:/home/users/aag/code/gcc-arm-none-eabi-7-2018-q2-update/arm-none-eabi/include/c++/7.3.1/bits/stl_algobase.h **** // Under Section 7 of GPL version 3, you are granted additional
  17:/home/users/aag/code/gcc-arm-none-eabi-7-2018-q2-update/arm-none-eabi/include/c++/7.3.1/bits/stl_algobase.h **** // permissions described in the GCC Runtime Library Exception, version
  18:/home/users/aag/code/gcc-arm-none-eabi-7-2018-q2-update/arm-none-eabi/include/c++/7.3.1/bits/stl_algobase.h **** // 3.1, as published by the Free Software Foundation.
  19:/home/users/aag/code/gcc-arm-none-eabi-7-2018-q2-update/arm-none-eabi/include/c++/7.3.1/bits/stl_algobase.h **** 
  20:/home/users/aag/code/gcc-arm-none-eabi-7-2018-q2-update/arm-none-eabi/include/c++/7.3.1/bits/stl_algobase.h **** // You should have received a copy of the GNU General Public License and
  21:/home/users/aag/code/gcc-arm-none-eabi-7-2018-q2-update/arm-none-eabi/include/c++/7.3.1/bits/stl_algobase.h **** // a copy of the GCC Runtime Library Exception along with this program;
  22:/home/users/aag/code/gcc-arm-none-eabi-7-2018-q2-update/arm-none-eabi/include/c++/7.3.1/bits/stl_algobase.h **** // see the files COPYING3 and COPYING.RUNTIME respectively.  If not, see
  23:/home/users/aag/code/gcc-arm-none-eabi-7-2018-q2-update/arm-none-eabi/include/c++/7.3.1/bits/stl_algobase.h **** // <http://www.gnu.org/licenses/>.
  24:/home/users/aag/code/gcc-arm-none-eabi-7-2018-q2-update/arm-none-eabi/include/c++/7.3.1/bits/stl_algobase.h **** 
  25:/home/users/aag/code/gcc-arm-none-eabi-7-2018-q2-update/arm-none-eabi/include/c++/7.3.1/bits/stl_algobase.h **** /*
  26:/home/users/aag/code/gcc-arm-none-eabi-7-2018-q2-update/arm-none-eabi/include/c++/7.3.1/bits/stl_algobase.h ****  *
  27:/home/users/aag/code/gcc-arm-none-eabi-7-2018-q2-update/arm-none-eabi/include/c++/7.3.1/bits/stl_algobase.h ****  * Copyright (c) 1994
  28:/home/users/aag/code/gcc-arm-none-eabi-7-2018-q2-update/arm-none-eabi/include/c++/7.3.1/bits/stl_algobase.h ****  * Hewlett-Packard Company
  29:/home/users/aag/code/gcc-arm-none-eabi-7-2018-q2-update/arm-none-eabi/include/c++/7.3.1/bits/stl_algobase.h ****  *
  30:/home/users/aag/code/gcc-arm-none-eabi-7-2018-q2-update/arm-none-eabi/include/c++/7.3.1/bits/stl_algobase.h ****  * Permission to use, copy, modify, distribute and sell this software
  31:/home/users/aag/code/gcc-arm-none-eabi-7-2018-q2-update/arm-none-eabi/include/c++/7.3.1/bits/stl_algobase.h ****  * and its documentation for any purpose is hereby granted without fee,
  32:/home/users/aag/code/gcc-arm-none-eabi-7-2018-q2-update/arm-none-eabi/include/c++/7.3.1/bits/stl_algobase.h ****  * provided that the above copyright notice appear in all copies and
  33:/home/users/aag/code/gcc-arm-none-eabi-7-2018-q2-update/arm-none-eabi/include/c++/7.3.1/bits/stl_algobase.h ****  * that both that copyright notice and this permission notice appear
  34:/home/users/aag/code/gcc-arm-none-eabi-7-2018-q2-update/arm-none-eabi/include/c++/7.3.1/bits/stl_algobase.h ****  * in supporting documentation.  Hewlett-Packard Company makes no
  35:/home/users/aag/code/gcc-arm-none-eabi-7-2018-q2-update/arm-none-eabi/include/c++/7.3.1/bits/stl_algobase.h ****  * representations about the suitability of this software for any
  36:/home/users/aag/code/gcc-arm-none-eabi-7-2018-q2-update/arm-none-eabi/include/c++/7.3.1/bits/stl_algobase.h ****  * purpose.  It is provided "as is" without express or implied warranty.
  37:/home/users/aag/code/gcc-arm-none-eabi-7-2018-q2-update/arm-none-eabi/include/c++/7.3.1/bits/stl_algobase.h ****  *
  38:/home/users/aag/code/gcc-arm-none-eabi-7-2018-q2-update/arm-none-eabi/include/c++/7.3.1/bits/stl_algobase.h ****  *
  39:/home/users/aag/code/gcc-arm-none-eabi-7-2018-q2-update/arm-none-eabi/include/c++/7.3.1/bits/stl_algobase.h ****  * Copyright (c) 1996-1998
  40:/home/users/aag/code/gcc-arm-none-eabi-7-2018-q2-update/arm-none-eabi/include/c++/7.3.1/bits/stl_algobase.h ****  * Silicon Graphics Computer Systems, Inc.
  41:/home/users/aag/code/gcc-arm-none-eabi-7-2018-q2-update/arm-none-eabi/include/c++/7.3.1/bits/stl_algobase.h ****  *
  42:/home/users/aag/code/gcc-arm-none-eabi-7-2018-q2-update/arm-none-eabi/include/c++/7.3.1/bits/stl_algobase.h ****  * Permission to use, copy, modify, distribute and sell this software
  43:/home/users/aag/code/gcc-arm-none-eabi-7-2018-q2-update/arm-none-eabi/include/c++/7.3.1/bits/stl_algobase.h ****  * and its documentation for any purpose is hereby granted without fee,
ARM GAS  /tmp/cc03sYHg.s 			page 37


  44:/home/users/aag/code/gcc-arm-none-eabi-7-2018-q2-update/arm-none-eabi/include/c++/7.3.1/bits/stl_algobase.h ****  * provided that the above copyright notice appear in all copies and
  45:/home/users/aag/code/gcc-arm-none-eabi-7-2018-q2-update/arm-none-eabi/include/c++/7.3.1/bits/stl_algobase.h ****  * that both that copyright notice and this permission notice appear
  46:/home/users/aag/code/gcc-arm-none-eabi-7-2018-q2-update/arm-none-eabi/include/c++/7.3.1/bits/stl_algobase.h ****  * in supporting documentation.  Silicon Graphics makes no
  47:/home/users/aag/code/gcc-arm-none-eabi-7-2018-q2-update/arm-none-eabi/include/c++/7.3.1/bits/stl_algobase.h ****  * representations about the suitability of this software for any
  48:/home/users/aag/code/gcc-arm-none-eabi-7-2018-q2-update/arm-none-eabi/include/c++/7.3.1/bits/stl_algobase.h ****  * purpose.  It is provided "as is" without express or implied warranty.
  49:/home/users/aag/code/gcc-arm-none-eabi-7-2018-q2-update/arm-none-eabi/include/c++/7.3.1/bits/stl_algobase.h ****  */
  50:/home/users/aag/code/gcc-arm-none-eabi-7-2018-q2-update/arm-none-eabi/include/c++/7.3.1/bits/stl_algobase.h **** 
  51:/home/users/aag/code/gcc-arm-none-eabi-7-2018-q2-update/arm-none-eabi/include/c++/7.3.1/bits/stl_algobase.h **** /** @file bits/stl_algobase.h
  52:/home/users/aag/code/gcc-arm-none-eabi-7-2018-q2-update/arm-none-eabi/include/c++/7.3.1/bits/stl_algobase.h ****  *  This is an internal header file, included by other library headers.
  53:/home/users/aag/code/gcc-arm-none-eabi-7-2018-q2-update/arm-none-eabi/include/c++/7.3.1/bits/stl_algobase.h ****  *  Do not attempt to use it directly. @headername{algorithm}
  54:/home/users/aag/code/gcc-arm-none-eabi-7-2018-q2-update/arm-none-eabi/include/c++/7.3.1/bits/stl_algobase.h ****  */
  55:/home/users/aag/code/gcc-arm-none-eabi-7-2018-q2-update/arm-none-eabi/include/c++/7.3.1/bits/stl_algobase.h **** 
  56:/home/users/aag/code/gcc-arm-none-eabi-7-2018-q2-update/arm-none-eabi/include/c++/7.3.1/bits/stl_algobase.h **** #ifndef _STL_ALGOBASE_H
  57:/home/users/aag/code/gcc-arm-none-eabi-7-2018-q2-update/arm-none-eabi/include/c++/7.3.1/bits/stl_algobase.h **** #define _STL_ALGOBASE_H 1
  58:/home/users/aag/code/gcc-arm-none-eabi-7-2018-q2-update/arm-none-eabi/include/c++/7.3.1/bits/stl_algobase.h **** 
  59:/home/users/aag/code/gcc-arm-none-eabi-7-2018-q2-update/arm-none-eabi/include/c++/7.3.1/bits/stl_algobase.h **** #include <bits/c++config.h>
  60:/home/users/aag/code/gcc-arm-none-eabi-7-2018-q2-update/arm-none-eabi/include/c++/7.3.1/bits/stl_algobase.h **** #include <bits/functexcept.h>
  61:/home/users/aag/code/gcc-arm-none-eabi-7-2018-q2-update/arm-none-eabi/include/c++/7.3.1/bits/stl_algobase.h **** #include <bits/cpp_type_traits.h>
  62:/home/users/aag/code/gcc-arm-none-eabi-7-2018-q2-update/arm-none-eabi/include/c++/7.3.1/bits/stl_algobase.h **** #include <ext/type_traits.h>
  63:/home/users/aag/code/gcc-arm-none-eabi-7-2018-q2-update/arm-none-eabi/include/c++/7.3.1/bits/stl_algobase.h **** #include <ext/numeric_traits.h>
  64:/home/users/aag/code/gcc-arm-none-eabi-7-2018-q2-update/arm-none-eabi/include/c++/7.3.1/bits/stl_algobase.h **** #include <bits/stl_pair.h>
  65:/home/users/aag/code/gcc-arm-none-eabi-7-2018-q2-update/arm-none-eabi/include/c++/7.3.1/bits/stl_algobase.h **** #include <bits/stl_iterator_base_types.h>
  66:/home/users/aag/code/gcc-arm-none-eabi-7-2018-q2-update/arm-none-eabi/include/c++/7.3.1/bits/stl_algobase.h **** #include <bits/stl_iterator_base_funcs.h>
  67:/home/users/aag/code/gcc-arm-none-eabi-7-2018-q2-update/arm-none-eabi/include/c++/7.3.1/bits/stl_algobase.h **** #include <bits/stl_iterator.h>
  68:/home/users/aag/code/gcc-arm-none-eabi-7-2018-q2-update/arm-none-eabi/include/c++/7.3.1/bits/stl_algobase.h **** #include <bits/concept_check.h>
  69:/home/users/aag/code/gcc-arm-none-eabi-7-2018-q2-update/arm-none-eabi/include/c++/7.3.1/bits/stl_algobase.h **** #include <debug/debug.h>
  70:/home/users/aag/code/gcc-arm-none-eabi-7-2018-q2-update/arm-none-eabi/include/c++/7.3.1/bits/stl_algobase.h **** #include <bits/move.h> // For std::swap and _GLIBCXX_MOVE
  71:/home/users/aag/code/gcc-arm-none-eabi-7-2018-q2-update/arm-none-eabi/include/c++/7.3.1/bits/stl_algobase.h **** #include <bits/predefined_ops.h>
  72:/home/users/aag/code/gcc-arm-none-eabi-7-2018-q2-update/arm-none-eabi/include/c++/7.3.1/bits/stl_algobase.h **** 
  73:/home/users/aag/code/gcc-arm-none-eabi-7-2018-q2-update/arm-none-eabi/include/c++/7.3.1/bits/stl_algobase.h **** namespace std _GLIBCXX_VISIBILITY(default)
  74:/home/users/aag/code/gcc-arm-none-eabi-7-2018-q2-update/arm-none-eabi/include/c++/7.3.1/bits/stl_algobase.h **** {
  75:/home/users/aag/code/gcc-arm-none-eabi-7-2018-q2-update/arm-none-eabi/include/c++/7.3.1/bits/stl_algobase.h **** _GLIBCXX_BEGIN_NAMESPACE_VERSION
  76:/home/users/aag/code/gcc-arm-none-eabi-7-2018-q2-update/arm-none-eabi/include/c++/7.3.1/bits/stl_algobase.h **** 
  77:/home/users/aag/code/gcc-arm-none-eabi-7-2018-q2-update/arm-none-eabi/include/c++/7.3.1/bits/stl_algobase.h **** #if __cplusplus < 201103L
  78:/home/users/aag/code/gcc-arm-none-eabi-7-2018-q2-update/arm-none-eabi/include/c++/7.3.1/bits/stl_algobase.h ****   // See http://gcc.gnu.org/ml/libstdc++/2004-08/msg00167.html: in a
  79:/home/users/aag/code/gcc-arm-none-eabi-7-2018-q2-update/arm-none-eabi/include/c++/7.3.1/bits/stl_algobase.h ****   // nutshell, we are partially implementing the resolution of DR 187,
  80:/home/users/aag/code/gcc-arm-none-eabi-7-2018-q2-update/arm-none-eabi/include/c++/7.3.1/bits/stl_algobase.h ****   // when it's safe, i.e., the value_types are equal.
  81:/home/users/aag/code/gcc-arm-none-eabi-7-2018-q2-update/arm-none-eabi/include/c++/7.3.1/bits/stl_algobase.h ****   template<bool _BoolType>
  82:/home/users/aag/code/gcc-arm-none-eabi-7-2018-q2-update/arm-none-eabi/include/c++/7.3.1/bits/stl_algobase.h ****     struct __iter_swap
  83:/home/users/aag/code/gcc-arm-none-eabi-7-2018-q2-update/arm-none-eabi/include/c++/7.3.1/bits/stl_algobase.h ****     {
  84:/home/users/aag/code/gcc-arm-none-eabi-7-2018-q2-update/arm-none-eabi/include/c++/7.3.1/bits/stl_algobase.h ****       template<typename _ForwardIterator1, typename _ForwardIterator2>
  85:/home/users/aag/code/gcc-arm-none-eabi-7-2018-q2-update/arm-none-eabi/include/c++/7.3.1/bits/stl_algobase.h ****         static void
  86:/home/users/aag/code/gcc-arm-none-eabi-7-2018-q2-update/arm-none-eabi/include/c++/7.3.1/bits/stl_algobase.h ****         iter_swap(_ForwardIterator1 __a, _ForwardIterator2 __b)
  87:/home/users/aag/code/gcc-arm-none-eabi-7-2018-q2-update/arm-none-eabi/include/c++/7.3.1/bits/stl_algobase.h ****         {
  88:/home/users/aag/code/gcc-arm-none-eabi-7-2018-q2-update/arm-none-eabi/include/c++/7.3.1/bits/stl_algobase.h ****           typedef typename iterator_traits<_ForwardIterator1>::value_type
  89:/home/users/aag/code/gcc-arm-none-eabi-7-2018-q2-update/arm-none-eabi/include/c++/7.3.1/bits/stl_algobase.h ****             _ValueType1;
  90:/home/users/aag/code/gcc-arm-none-eabi-7-2018-q2-update/arm-none-eabi/include/c++/7.3.1/bits/stl_algobase.h ****           _ValueType1 __tmp = _GLIBCXX_MOVE(*__a);
  91:/home/users/aag/code/gcc-arm-none-eabi-7-2018-q2-update/arm-none-eabi/include/c++/7.3.1/bits/stl_algobase.h ****           *__a = _GLIBCXX_MOVE(*__b);
  92:/home/users/aag/code/gcc-arm-none-eabi-7-2018-q2-update/arm-none-eabi/include/c++/7.3.1/bits/stl_algobase.h ****           *__b = _GLIBCXX_MOVE(__tmp);
  93:/home/users/aag/code/gcc-arm-none-eabi-7-2018-q2-update/arm-none-eabi/include/c++/7.3.1/bits/stl_algobase.h **** 	}
  94:/home/users/aag/code/gcc-arm-none-eabi-7-2018-q2-update/arm-none-eabi/include/c++/7.3.1/bits/stl_algobase.h ****     };
  95:/home/users/aag/code/gcc-arm-none-eabi-7-2018-q2-update/arm-none-eabi/include/c++/7.3.1/bits/stl_algobase.h **** 
  96:/home/users/aag/code/gcc-arm-none-eabi-7-2018-q2-update/arm-none-eabi/include/c++/7.3.1/bits/stl_algobase.h ****   template<>
  97:/home/users/aag/code/gcc-arm-none-eabi-7-2018-q2-update/arm-none-eabi/include/c++/7.3.1/bits/stl_algobase.h ****     struct __iter_swap<true>
  98:/home/users/aag/code/gcc-arm-none-eabi-7-2018-q2-update/arm-none-eabi/include/c++/7.3.1/bits/stl_algobase.h ****     {
  99:/home/users/aag/code/gcc-arm-none-eabi-7-2018-q2-update/arm-none-eabi/include/c++/7.3.1/bits/stl_algobase.h ****       template<typename _ForwardIterator1, typename _ForwardIterator2>
 100:/home/users/aag/code/gcc-arm-none-eabi-7-2018-q2-update/arm-none-eabi/include/c++/7.3.1/bits/stl_algobase.h ****         static void 
ARM GAS  /tmp/cc03sYHg.s 			page 38


 101:/home/users/aag/code/gcc-arm-none-eabi-7-2018-q2-update/arm-none-eabi/include/c++/7.3.1/bits/stl_algobase.h ****         iter_swap(_ForwardIterator1 __a, _ForwardIterator2 __b)
 102:/home/users/aag/code/gcc-arm-none-eabi-7-2018-q2-update/arm-none-eabi/include/c++/7.3.1/bits/stl_algobase.h ****         {
 103:/home/users/aag/code/gcc-arm-none-eabi-7-2018-q2-update/arm-none-eabi/include/c++/7.3.1/bits/stl_algobase.h ****           swap(*__a, *__b);
 104:/home/users/aag/code/gcc-arm-none-eabi-7-2018-q2-update/arm-none-eabi/include/c++/7.3.1/bits/stl_algobase.h ****         }
 105:/home/users/aag/code/gcc-arm-none-eabi-7-2018-q2-update/arm-none-eabi/include/c++/7.3.1/bits/stl_algobase.h ****     };
 106:/home/users/aag/code/gcc-arm-none-eabi-7-2018-q2-update/arm-none-eabi/include/c++/7.3.1/bits/stl_algobase.h **** #endif
 107:/home/users/aag/code/gcc-arm-none-eabi-7-2018-q2-update/arm-none-eabi/include/c++/7.3.1/bits/stl_algobase.h **** 
 108:/home/users/aag/code/gcc-arm-none-eabi-7-2018-q2-update/arm-none-eabi/include/c++/7.3.1/bits/stl_algobase.h ****   /**
 109:/home/users/aag/code/gcc-arm-none-eabi-7-2018-q2-update/arm-none-eabi/include/c++/7.3.1/bits/stl_algobase.h ****    *  @brief Swaps the contents of two iterators.
 110:/home/users/aag/code/gcc-arm-none-eabi-7-2018-q2-update/arm-none-eabi/include/c++/7.3.1/bits/stl_algobase.h ****    *  @ingroup mutating_algorithms
 111:/home/users/aag/code/gcc-arm-none-eabi-7-2018-q2-update/arm-none-eabi/include/c++/7.3.1/bits/stl_algobase.h ****    *  @param  __a  An iterator.
 112:/home/users/aag/code/gcc-arm-none-eabi-7-2018-q2-update/arm-none-eabi/include/c++/7.3.1/bits/stl_algobase.h ****    *  @param  __b  Another iterator.
 113:/home/users/aag/code/gcc-arm-none-eabi-7-2018-q2-update/arm-none-eabi/include/c++/7.3.1/bits/stl_algobase.h ****    *  @return   Nothing.
 114:/home/users/aag/code/gcc-arm-none-eabi-7-2018-q2-update/arm-none-eabi/include/c++/7.3.1/bits/stl_algobase.h ****    *
 115:/home/users/aag/code/gcc-arm-none-eabi-7-2018-q2-update/arm-none-eabi/include/c++/7.3.1/bits/stl_algobase.h ****    *  This function swaps the values pointed to by two iterators, not the
 116:/home/users/aag/code/gcc-arm-none-eabi-7-2018-q2-update/arm-none-eabi/include/c++/7.3.1/bits/stl_algobase.h ****    *  iterators themselves.
 117:/home/users/aag/code/gcc-arm-none-eabi-7-2018-q2-update/arm-none-eabi/include/c++/7.3.1/bits/stl_algobase.h ****   */
 118:/home/users/aag/code/gcc-arm-none-eabi-7-2018-q2-update/arm-none-eabi/include/c++/7.3.1/bits/stl_algobase.h ****   template<typename _ForwardIterator1, typename _ForwardIterator2>
 119:/home/users/aag/code/gcc-arm-none-eabi-7-2018-q2-update/arm-none-eabi/include/c++/7.3.1/bits/stl_algobase.h ****     inline void
 120:/home/users/aag/code/gcc-arm-none-eabi-7-2018-q2-update/arm-none-eabi/include/c++/7.3.1/bits/stl_algobase.h ****     iter_swap(_ForwardIterator1 __a, _ForwardIterator2 __b)
 121:/home/users/aag/code/gcc-arm-none-eabi-7-2018-q2-update/arm-none-eabi/include/c++/7.3.1/bits/stl_algobase.h ****     {
 122:/home/users/aag/code/gcc-arm-none-eabi-7-2018-q2-update/arm-none-eabi/include/c++/7.3.1/bits/stl_algobase.h ****       // concept requirements
 123:/home/users/aag/code/gcc-arm-none-eabi-7-2018-q2-update/arm-none-eabi/include/c++/7.3.1/bits/stl_algobase.h ****       __glibcxx_function_requires(_Mutable_ForwardIteratorConcept<
 124:/home/users/aag/code/gcc-arm-none-eabi-7-2018-q2-update/arm-none-eabi/include/c++/7.3.1/bits/stl_algobase.h **** 				  _ForwardIterator1>)
 125:/home/users/aag/code/gcc-arm-none-eabi-7-2018-q2-update/arm-none-eabi/include/c++/7.3.1/bits/stl_algobase.h ****       __glibcxx_function_requires(_Mutable_ForwardIteratorConcept<
 126:/home/users/aag/code/gcc-arm-none-eabi-7-2018-q2-update/arm-none-eabi/include/c++/7.3.1/bits/stl_algobase.h **** 				  _ForwardIterator2>)
 127:/home/users/aag/code/gcc-arm-none-eabi-7-2018-q2-update/arm-none-eabi/include/c++/7.3.1/bits/stl_algobase.h **** 
 128:/home/users/aag/code/gcc-arm-none-eabi-7-2018-q2-update/arm-none-eabi/include/c++/7.3.1/bits/stl_algobase.h **** #if __cplusplus < 201103L
 129:/home/users/aag/code/gcc-arm-none-eabi-7-2018-q2-update/arm-none-eabi/include/c++/7.3.1/bits/stl_algobase.h ****       typedef typename iterator_traits<_ForwardIterator1>::value_type
 130:/home/users/aag/code/gcc-arm-none-eabi-7-2018-q2-update/arm-none-eabi/include/c++/7.3.1/bits/stl_algobase.h **** 	_ValueType1;
 131:/home/users/aag/code/gcc-arm-none-eabi-7-2018-q2-update/arm-none-eabi/include/c++/7.3.1/bits/stl_algobase.h ****       typedef typename iterator_traits<_ForwardIterator2>::value_type
 132:/home/users/aag/code/gcc-arm-none-eabi-7-2018-q2-update/arm-none-eabi/include/c++/7.3.1/bits/stl_algobase.h **** 	_ValueType2;
 133:/home/users/aag/code/gcc-arm-none-eabi-7-2018-q2-update/arm-none-eabi/include/c++/7.3.1/bits/stl_algobase.h **** 
 134:/home/users/aag/code/gcc-arm-none-eabi-7-2018-q2-update/arm-none-eabi/include/c++/7.3.1/bits/stl_algobase.h ****       __glibcxx_function_requires(_ConvertibleConcept<_ValueType1,
 135:/home/users/aag/code/gcc-arm-none-eabi-7-2018-q2-update/arm-none-eabi/include/c++/7.3.1/bits/stl_algobase.h **** 				  _ValueType2>)
 136:/home/users/aag/code/gcc-arm-none-eabi-7-2018-q2-update/arm-none-eabi/include/c++/7.3.1/bits/stl_algobase.h ****       __glibcxx_function_requires(_ConvertibleConcept<_ValueType2,
 137:/home/users/aag/code/gcc-arm-none-eabi-7-2018-q2-update/arm-none-eabi/include/c++/7.3.1/bits/stl_algobase.h **** 				  _ValueType1>)
 138:/home/users/aag/code/gcc-arm-none-eabi-7-2018-q2-update/arm-none-eabi/include/c++/7.3.1/bits/stl_algobase.h **** 
 139:/home/users/aag/code/gcc-arm-none-eabi-7-2018-q2-update/arm-none-eabi/include/c++/7.3.1/bits/stl_algobase.h ****       typedef typename iterator_traits<_ForwardIterator1>::reference
 140:/home/users/aag/code/gcc-arm-none-eabi-7-2018-q2-update/arm-none-eabi/include/c++/7.3.1/bits/stl_algobase.h **** 	_ReferenceType1;
 141:/home/users/aag/code/gcc-arm-none-eabi-7-2018-q2-update/arm-none-eabi/include/c++/7.3.1/bits/stl_algobase.h ****       typedef typename iterator_traits<_ForwardIterator2>::reference
 142:/home/users/aag/code/gcc-arm-none-eabi-7-2018-q2-update/arm-none-eabi/include/c++/7.3.1/bits/stl_algobase.h **** 	_ReferenceType2;
 143:/home/users/aag/code/gcc-arm-none-eabi-7-2018-q2-update/arm-none-eabi/include/c++/7.3.1/bits/stl_algobase.h ****       std::__iter_swap<__are_same<_ValueType1, _ValueType2>::__value
 144:/home/users/aag/code/gcc-arm-none-eabi-7-2018-q2-update/arm-none-eabi/include/c++/7.3.1/bits/stl_algobase.h **** 	&& __are_same<_ValueType1&, _ReferenceType1>::__value
 145:/home/users/aag/code/gcc-arm-none-eabi-7-2018-q2-update/arm-none-eabi/include/c++/7.3.1/bits/stl_algobase.h **** 	&& __are_same<_ValueType2&, _ReferenceType2>::__value>::
 146:/home/users/aag/code/gcc-arm-none-eabi-7-2018-q2-update/arm-none-eabi/include/c++/7.3.1/bits/stl_algobase.h **** 	iter_swap(__a, __b);
 147:/home/users/aag/code/gcc-arm-none-eabi-7-2018-q2-update/arm-none-eabi/include/c++/7.3.1/bits/stl_algobase.h **** #else
 148:/home/users/aag/code/gcc-arm-none-eabi-7-2018-q2-update/arm-none-eabi/include/c++/7.3.1/bits/stl_algobase.h ****       swap(*__a, *__b);
 149:/home/users/aag/code/gcc-arm-none-eabi-7-2018-q2-update/arm-none-eabi/include/c++/7.3.1/bits/stl_algobase.h **** #endif
 150:/home/users/aag/code/gcc-arm-none-eabi-7-2018-q2-update/arm-none-eabi/include/c++/7.3.1/bits/stl_algobase.h ****     }
 151:/home/users/aag/code/gcc-arm-none-eabi-7-2018-q2-update/arm-none-eabi/include/c++/7.3.1/bits/stl_algobase.h **** 
 152:/home/users/aag/code/gcc-arm-none-eabi-7-2018-q2-update/arm-none-eabi/include/c++/7.3.1/bits/stl_algobase.h ****   /**
 153:/home/users/aag/code/gcc-arm-none-eabi-7-2018-q2-update/arm-none-eabi/include/c++/7.3.1/bits/stl_algobase.h ****    *  @brief Swap the elements of two sequences.
 154:/home/users/aag/code/gcc-arm-none-eabi-7-2018-q2-update/arm-none-eabi/include/c++/7.3.1/bits/stl_algobase.h ****    *  @ingroup mutating_algorithms
 155:/home/users/aag/code/gcc-arm-none-eabi-7-2018-q2-update/arm-none-eabi/include/c++/7.3.1/bits/stl_algobase.h ****    *  @param  __first1  A forward iterator.
 156:/home/users/aag/code/gcc-arm-none-eabi-7-2018-q2-update/arm-none-eabi/include/c++/7.3.1/bits/stl_algobase.h ****    *  @param  __last1   A forward iterator.
 157:/home/users/aag/code/gcc-arm-none-eabi-7-2018-q2-update/arm-none-eabi/include/c++/7.3.1/bits/stl_algobase.h ****    *  @param  __first2  A forward iterator.
ARM GAS  /tmp/cc03sYHg.s 			page 39


 158:/home/users/aag/code/gcc-arm-none-eabi-7-2018-q2-update/arm-none-eabi/include/c++/7.3.1/bits/stl_algobase.h ****    *  @return   An iterator equal to @p first2+(last1-first1).
 159:/home/users/aag/code/gcc-arm-none-eabi-7-2018-q2-update/arm-none-eabi/include/c++/7.3.1/bits/stl_algobase.h ****    *
 160:/home/users/aag/code/gcc-arm-none-eabi-7-2018-q2-update/arm-none-eabi/include/c++/7.3.1/bits/stl_algobase.h ****    *  Swaps each element in the range @p [first1,last1) with the
 161:/home/users/aag/code/gcc-arm-none-eabi-7-2018-q2-update/arm-none-eabi/include/c++/7.3.1/bits/stl_algobase.h ****    *  corresponding element in the range @p [first2,(last1-first1)).
 162:/home/users/aag/code/gcc-arm-none-eabi-7-2018-q2-update/arm-none-eabi/include/c++/7.3.1/bits/stl_algobase.h ****    *  The ranges must not overlap.
 163:/home/users/aag/code/gcc-arm-none-eabi-7-2018-q2-update/arm-none-eabi/include/c++/7.3.1/bits/stl_algobase.h ****   */
 164:/home/users/aag/code/gcc-arm-none-eabi-7-2018-q2-update/arm-none-eabi/include/c++/7.3.1/bits/stl_algobase.h ****   template<typename _ForwardIterator1, typename _ForwardIterator2>
 165:/home/users/aag/code/gcc-arm-none-eabi-7-2018-q2-update/arm-none-eabi/include/c++/7.3.1/bits/stl_algobase.h ****     _ForwardIterator2
 166:/home/users/aag/code/gcc-arm-none-eabi-7-2018-q2-update/arm-none-eabi/include/c++/7.3.1/bits/stl_algobase.h ****     swap_ranges(_ForwardIterator1 __first1, _ForwardIterator1 __last1,
 167:/home/users/aag/code/gcc-arm-none-eabi-7-2018-q2-update/arm-none-eabi/include/c++/7.3.1/bits/stl_algobase.h **** 		_ForwardIterator2 __first2)
 168:/home/users/aag/code/gcc-arm-none-eabi-7-2018-q2-update/arm-none-eabi/include/c++/7.3.1/bits/stl_algobase.h ****     {
 169:/home/users/aag/code/gcc-arm-none-eabi-7-2018-q2-update/arm-none-eabi/include/c++/7.3.1/bits/stl_algobase.h ****       // concept requirements
 170:/home/users/aag/code/gcc-arm-none-eabi-7-2018-q2-update/arm-none-eabi/include/c++/7.3.1/bits/stl_algobase.h ****       __glibcxx_function_requires(_Mutable_ForwardIteratorConcept<
 171:/home/users/aag/code/gcc-arm-none-eabi-7-2018-q2-update/arm-none-eabi/include/c++/7.3.1/bits/stl_algobase.h **** 				  _ForwardIterator1>)
 172:/home/users/aag/code/gcc-arm-none-eabi-7-2018-q2-update/arm-none-eabi/include/c++/7.3.1/bits/stl_algobase.h ****       __glibcxx_function_requires(_Mutable_ForwardIteratorConcept<
 173:/home/users/aag/code/gcc-arm-none-eabi-7-2018-q2-update/arm-none-eabi/include/c++/7.3.1/bits/stl_algobase.h **** 				  _ForwardIterator2>)
 174:/home/users/aag/code/gcc-arm-none-eabi-7-2018-q2-update/arm-none-eabi/include/c++/7.3.1/bits/stl_algobase.h ****       __glibcxx_requires_valid_range(__first1, __last1);
 175:/home/users/aag/code/gcc-arm-none-eabi-7-2018-q2-update/arm-none-eabi/include/c++/7.3.1/bits/stl_algobase.h **** 
 176:/home/users/aag/code/gcc-arm-none-eabi-7-2018-q2-update/arm-none-eabi/include/c++/7.3.1/bits/stl_algobase.h ****       for (; __first1 != __last1; ++__first1, (void)++__first2)
 177:/home/users/aag/code/gcc-arm-none-eabi-7-2018-q2-update/arm-none-eabi/include/c++/7.3.1/bits/stl_algobase.h **** 	std::iter_swap(__first1, __first2);
 178:/home/users/aag/code/gcc-arm-none-eabi-7-2018-q2-update/arm-none-eabi/include/c++/7.3.1/bits/stl_algobase.h ****       return __first2;
 179:/home/users/aag/code/gcc-arm-none-eabi-7-2018-q2-update/arm-none-eabi/include/c++/7.3.1/bits/stl_algobase.h ****     }
 180:/home/users/aag/code/gcc-arm-none-eabi-7-2018-q2-update/arm-none-eabi/include/c++/7.3.1/bits/stl_algobase.h **** 
 181:/home/users/aag/code/gcc-arm-none-eabi-7-2018-q2-update/arm-none-eabi/include/c++/7.3.1/bits/stl_algobase.h ****   /**
 182:/home/users/aag/code/gcc-arm-none-eabi-7-2018-q2-update/arm-none-eabi/include/c++/7.3.1/bits/stl_algobase.h ****    *  @brief This does what you think it does.
 183:/home/users/aag/code/gcc-arm-none-eabi-7-2018-q2-update/arm-none-eabi/include/c++/7.3.1/bits/stl_algobase.h ****    *  @ingroup sorting_algorithms
 184:/home/users/aag/code/gcc-arm-none-eabi-7-2018-q2-update/arm-none-eabi/include/c++/7.3.1/bits/stl_algobase.h ****    *  @param  __a  A thing of arbitrary type.
 185:/home/users/aag/code/gcc-arm-none-eabi-7-2018-q2-update/arm-none-eabi/include/c++/7.3.1/bits/stl_algobase.h ****    *  @param  __b  Another thing of arbitrary type.
 186:/home/users/aag/code/gcc-arm-none-eabi-7-2018-q2-update/arm-none-eabi/include/c++/7.3.1/bits/stl_algobase.h ****    *  @return   The lesser of the parameters.
 187:/home/users/aag/code/gcc-arm-none-eabi-7-2018-q2-update/arm-none-eabi/include/c++/7.3.1/bits/stl_algobase.h ****    *
 188:/home/users/aag/code/gcc-arm-none-eabi-7-2018-q2-update/arm-none-eabi/include/c++/7.3.1/bits/stl_algobase.h ****    *  This is the simple classic generic implementation.  It will work on
 189:/home/users/aag/code/gcc-arm-none-eabi-7-2018-q2-update/arm-none-eabi/include/c++/7.3.1/bits/stl_algobase.h ****    *  temporary expressions, since they are only evaluated once, unlike a
 190:/home/users/aag/code/gcc-arm-none-eabi-7-2018-q2-update/arm-none-eabi/include/c++/7.3.1/bits/stl_algobase.h ****    *  preprocessor macro.
 191:/home/users/aag/code/gcc-arm-none-eabi-7-2018-q2-update/arm-none-eabi/include/c++/7.3.1/bits/stl_algobase.h ****   */
 192:/home/users/aag/code/gcc-arm-none-eabi-7-2018-q2-update/arm-none-eabi/include/c++/7.3.1/bits/stl_algobase.h ****   template<typename _Tp>
 193:/home/users/aag/code/gcc-arm-none-eabi-7-2018-q2-update/arm-none-eabi/include/c++/7.3.1/bits/stl_algobase.h ****     _GLIBCXX14_CONSTEXPR
 194:/home/users/aag/code/gcc-arm-none-eabi-7-2018-q2-update/arm-none-eabi/include/c++/7.3.1/bits/stl_algobase.h ****     inline const _Tp&
 195:/home/users/aag/code/gcc-arm-none-eabi-7-2018-q2-update/arm-none-eabi/include/c++/7.3.1/bits/stl_algobase.h ****     min(const _Tp& __a, const _Tp& __b)
 856              		.loc 6 195 0
 857              		.cfi_startproc
 858              		@ args = 0, pretend = 0, frame = 8
 859              		@ frame_needed = 1, uses_anonymous_args = 0
 860 0000 80B5     		push	{r7, lr}
 861              	.LCFI48:
 862              		.cfi_def_cfa_offset 8
 863              		.cfi_offset 7, -8
 864              		.cfi_offset 14, -4
 865 0002 82B0     		sub	sp, sp, #8
 866              	.LCFI49:
 867              		.cfi_def_cfa_offset 16
 868 0004 00AF     		add	r7, sp, #0
 869              	.LCFI50:
 870              		.cfi_def_cfa_register 7
 871 0006 7860     		str	r0, [r7, #4]
 872 0008 3960     		str	r1, [r7]
 196:/home/users/aag/code/gcc-arm-none-eabi-7-2018-q2-update/arm-none-eabi/include/c++/7.3.1/bits/stl_algobase.h ****     {
 197:/home/users/aag/code/gcc-arm-none-eabi-7-2018-q2-update/arm-none-eabi/include/c++/7.3.1/bits/stl_algobase.h ****       // concept requirements
ARM GAS  /tmp/cc03sYHg.s 			page 40


 198:/home/users/aag/code/gcc-arm-none-eabi-7-2018-q2-update/arm-none-eabi/include/c++/7.3.1/bits/stl_algobase.h ****       __glibcxx_function_requires(_LessThanComparableConcept<_Tp>)
 199:/home/users/aag/code/gcc-arm-none-eabi-7-2018-q2-update/arm-none-eabi/include/c++/7.3.1/bits/stl_algobase.h ****       //return __b < __a ? __b : __a;
 200:/home/users/aag/code/gcc-arm-none-eabi-7-2018-q2-update/arm-none-eabi/include/c++/7.3.1/bits/stl_algobase.h ****       if (__b < __a)
 873              		.loc 6 200 0
 874 000a 3B68     		ldr	r3, [r7]
 875 000c 1A68     		ldr	r2, [r3]
 876 000e 7B68     		ldr	r3, [r7, #4]
 877 0010 1B68     		ldr	r3, [r3]
 878 0012 9A42     		cmp	r2, r3
 879 0014 01D2     		bcs	.L58
 201:/home/users/aag/code/gcc-arm-none-eabi-7-2018-q2-update/arm-none-eabi/include/c++/7.3.1/bits/stl_algobase.h **** 	return __b;
 880              		.loc 6 201 0
 881 0016 3B68     		ldr	r3, [r7]
 882 0018 00E0     		b	.L59
 883              	.L58:
 202:/home/users/aag/code/gcc-arm-none-eabi-7-2018-q2-update/arm-none-eabi/include/c++/7.3.1/bits/stl_algobase.h ****       return __a;
 884              		.loc 6 202 0
 885 001a 7B68     		ldr	r3, [r7, #4]
 886              	.L59:
 203:/home/users/aag/code/gcc-arm-none-eabi-7-2018-q2-update/arm-none-eabi/include/c++/7.3.1/bits/stl_algobase.h ****     }
 887              		.loc 6 203 0
 888 001c 1800     		movs	r0, r3
 889 001e BD46     		mov	sp, r7
 890 0020 02B0     		add	sp, sp, #8
 891              		@ sp needed
 892 0022 80BD     		pop	{r7, pc}
 893              		.cfi_endproc
 894              	.LFE1721:
 896              		.section	.text._ZN9Publisher9subscribeER10Subscriber,"axG",%progbits,_ZN9Publisher9subscribeER10Su
 897              		.align	1
 898              		.weak	_ZN9Publisher9subscribeER10Subscriber
 899              		.syntax unified
 900              		.code	16
 901              		.thumb_func
 902              		.fpu softvfp
 904              	_ZN9Publisher9subscribeER10Subscriber:
 905              	.LFB2927:
 906              		.file 7 "mculib3/src/subscriber.h"
   1:mculib3/src/subscriber.h **** #pragma once
   2:mculib3/src/subscriber.h **** 
   3:mculib3/src/subscriber.h **** #pragma once
   4:mculib3/src/subscriber.h **** 
   5:mculib3/src/subscriber.h **** #include "list.h"
   6:mculib3/src/subscriber.h **** 
   7:mculib3/src/subscriber.h **** struct Subscriber : Listable<Subscriber> {
   8:mculib3/src/subscriber.h ****    virtual void notify() = 0;
   9:mculib3/src/subscriber.h **** };
  10:mculib3/src/subscriber.h **** 
  11:mculib3/src/subscriber.h **** struct Publisher : private List<Subscriber>
  12:mculib3/src/subscriber.h **** {
  13:mculib3/src/subscriber.h ****    void clear(){clear_subscribe();}
  14:mculib3/src/subscriber.h ****    void subscribe  (Subscriber& v) { push_back(v); }
 907              		.loc 7 14 0
 908              		.cfi_startproc
 909              		@ args = 0, pretend = 0, frame = 8
 910              		@ frame_needed = 1, uses_anonymous_args = 0
 911 0000 80B5     		push	{r7, lr}
ARM GAS  /tmp/cc03sYHg.s 			page 41


 912              	.LCFI51:
 913              		.cfi_def_cfa_offset 8
 914              		.cfi_offset 7, -8
 915              		.cfi_offset 14, -4
 916 0002 82B0     		sub	sp, sp, #8
 917              	.LCFI52:
 918              		.cfi_def_cfa_offset 16
 919 0004 00AF     		add	r7, sp, #0
 920              	.LCFI53:
 921              		.cfi_def_cfa_register 7
 922 0006 7860     		str	r0, [r7, #4]
 923 0008 3960     		str	r1, [r7]
 924              		.loc 7 14 0
 925 000a 7B68     		ldr	r3, [r7, #4]
 926 000c 3A68     		ldr	r2, [r7]
 927 000e 1100     		movs	r1, r2
 928 0010 1800     		movs	r0, r3
 929 0012 FFF7FEFF 		bl	_ZN4ListI10SubscriberE9push_backERS0_
 930 0016 C046     		nop
 931 0018 BD46     		mov	sp, r7
 932 001a 02B0     		add	sp, sp, #8
 933              		@ sp needed
 934 001c 80BD     		pop	{r7, pc}
 935              		.cfi_endproc
 936              	.LFE2927:
 938              		.section	.text._ZN9Publisher11unsubscribeER10Subscriber,"axG",%progbits,_ZN9Publisher11unsubscribe
 939              		.align	1
 940              		.weak	_ZN9Publisher11unsubscribeER10Subscriber
 941              		.syntax unified
 942              		.code	16
 943              		.thumb_func
 944              		.fpu softvfp
 946              	_ZN9Publisher11unsubscribeER10Subscriber:
 947              	.LFB2928:
  15:mculib3/src/subscriber.h ****    void unsubscribe(Subscriber& v) { remove(v);    }
 948              		.loc 7 15 0
 949              		.cfi_startproc
 950              		@ args = 0, pretend = 0, frame = 8
 951              		@ frame_needed = 1, uses_anonymous_args = 0
 952 0000 80B5     		push	{r7, lr}
 953              	.LCFI54:
 954              		.cfi_def_cfa_offset 8
 955              		.cfi_offset 7, -8
 956              		.cfi_offset 14, -4
 957 0002 82B0     		sub	sp, sp, #8
 958              	.LCFI55:
 959              		.cfi_def_cfa_offset 16
 960 0004 00AF     		add	r7, sp, #0
 961              	.LCFI56:
 962              		.cfi_def_cfa_register 7
 963 0006 7860     		str	r0, [r7, #4]
 964 0008 3960     		str	r1, [r7]
 965              		.loc 7 15 0
 966 000a 7B68     		ldr	r3, [r7, #4]
 967 000c 3A68     		ldr	r2, [r7]
 968 000e 1100     		movs	r1, r2
 969 0010 1800     		movs	r0, r3
ARM GAS  /tmp/cc03sYHg.s 			page 42


 970 0012 FFF7FEFF 		bl	_ZN4ListI10SubscriberE6removeERS0_
 971 0016 C046     		nop
 972 0018 BD46     		mov	sp, r7
 973 001a 02B0     		add	sp, sp, #8
 974              		@ sp needed
 975 001c 80BD     		pop	{r7, pc}
 976              		.cfi_endproc
 977              	.LFE2928:
 979              		.section	.text._ZN9Publisher6notifyEv,"axG",%progbits,_ZN9Publisher6notifyEv,comdat
 980              		.align	1
 981              		.weak	_ZN9Publisher6notifyEv
 982              		.syntax unified
 983              		.code	16
 984              		.thumb_func
 985              		.fpu softvfp
 987              	_ZN9Publisher6notifyEv:
 988              	.LFB2929:
  16:mculib3/src/subscriber.h ****    // ,     subscriber  *this
  17:mculib3/src/subscriber.h ****    void notify() {
 989              		.loc 7 17 0
 990              		.cfi_startproc
 991              		@ args = 0, pretend = 0, frame = 24
 992              		@ frame_needed = 1, uses_anonymous_args = 0
 993 0000 90B5     		push	{r4, r7, lr}
 994              	.LCFI57:
 995              		.cfi_def_cfa_offset 12
 996              		.cfi_offset 4, -12
 997              		.cfi_offset 7, -8
 998              		.cfi_offset 14, -4
 999 0002 87B0     		sub	sp, sp, #28
 1000              	.LCFI58:
 1001              		.cfi_def_cfa_offset 40
 1002 0004 00AF     		add	r7, sp, #0
 1003              	.LCFI59:
 1004              		.cfi_def_cfa_register 7
 1005 0006 7860     		str	r0, [r7, #4]
 1006              	.LBB5:
  18:mculib3/src/subscriber.h ****       for (auto& subscriber : *this)
 1007              		.loc 7 18 0
 1008 0008 7B68     		ldr	r3, [r7, #4]
 1009 000a 7B61     		str	r3, [r7, #20]
 1010 000c 7B69     		ldr	r3, [r7, #20]
 1011 000e 1800     		movs	r0, r3
 1012 0010 FFF7FEFF 		bl	_ZN4ListI10SubscriberE5beginEv
 1013 0014 0300     		movs	r3, r0
 1014 0016 FB60     		str	r3, [r7, #12]
 1015 0018 7B69     		ldr	r3, [r7, #20]
 1016 001a 1800     		movs	r0, r3
 1017 001c FFF7FEFF 		bl	_ZN4ListI10SubscriberE3endEv
 1018 0020 0300     		movs	r3, r0
 1019 0022 BB60     		str	r3, [r7, #8]
 1020              	.L64:
 1021              		.loc 7 18 0 is_stmt 0 discriminator 3
 1022 0024 0823     		movs	r3, #8
 1023 0026 FA18     		adds	r2, r7, r3
 1024 0028 0C23     		movs	r3, #12
 1025 002a FB18     		adds	r3, r7, r3
ARM GAS  /tmp/cc03sYHg.s 			page 43


 1026 002c 1100     		movs	r1, r2
 1027 002e 1800     		movs	r0, r3
 1028 0030 FFF7FEFF 		bl	_ZNK4ListI10SubscriberE8IteratorneERKS2_
 1029 0034 031E     		subs	r3, r0, #0
 1030 0036 11D0     		beq	.L65
 1031              		.loc 7 18 0 discriminator 2
 1032 0038 0C24     		movs	r4, #12
 1033 003a 3B19     		adds	r3, r7, r4
 1034 003c 1800     		movs	r0, r3
 1035 003e FFF7FEFF 		bl	_ZNK4ListI10SubscriberE8IteratordeEv
 1036 0042 0300     		movs	r3, r0
 1037 0044 3B61     		str	r3, [r7, #16]
  19:mculib3/src/subscriber.h ****          subscriber.notify();
 1038              		.loc 7 19 0 is_stmt 1 discriminator 2
 1039 0046 3B69     		ldr	r3, [r7, #16]
 1040 0048 1B68     		ldr	r3, [r3]
 1041 004a 1B68     		ldr	r3, [r3]
 1042 004c 3A69     		ldr	r2, [r7, #16]
 1043 004e 1000     		movs	r0, r2
 1044 0050 9847     		blx	r3
 1045              	.LVL0:
  18:mculib3/src/subscriber.h ****       for (auto& subscriber : *this)
 1046              		.loc 7 18 0 discriminator 2
 1047 0052 3B19     		adds	r3, r7, r4
 1048 0054 1800     		movs	r0, r3
 1049 0056 FFF7FEFF 		bl	_ZN4ListI10SubscriberE8IteratorppEv
 1050 005a E3E7     		b	.L64
 1051              	.L65:
 1052              	.LBE5:
  20:mculib3/src/subscriber.h ****       }
 1053              		.loc 7 20 0
 1054 005c C046     		nop
 1055 005e BD46     		mov	sp, r7
 1056 0060 07B0     		add	sp, sp, #28
 1057              		@ sp needed
 1058 0062 90BD     		pop	{r4, r7, pc}
 1059              		.cfi_endproc
 1060              	.LFE2929:
 1062              		.section	.text._ZN3mcu7SysTick4loadEm,"axG",%progbits,_ZN3mcu7SysTick4loadEm,comdat
 1063              		.align	1
 1064              		.weak	_ZN3mcu7SysTick4loadEm
 1065              		.syntax unified
 1066              		.code	16
 1067              		.thumb_func
 1068              		.fpu softvfp
 1070              	_ZN3mcu7SysTick4loadEm:
 1071              	.LFB2930:
 1072              		.file 8 "mculib3/src/periph/systick.h"
   1:mculib3/src/periph/systick.h **** #pragma once
   2:mculib3/src/periph/systick.h **** #define PERIPH_SYSTICK_H_
   3:mculib3/src/periph/systick.h **** 
   4:mculib3/src/periph/systick.h **** #include "periph.h"
   5:mculib3/src/periph/systick.h **** #include "bits_systick_f0_f4.h"
   6:mculib3/src/periph/systick.h **** 
   7:mculib3/src/periph/systick.h **** 
   8:mculib3/src/periph/systick.h **** 
   9:mculib3/src/periph/systick.h **** namespace mcu {
ARM GAS  /tmp/cc03sYHg.s 			page 44


  10:mculib3/src/periph/systick.h **** 
  11:mculib3/src/periph/systick.h **** 
  12:mculib3/src/periph/systick.h **** class SysTick {
  13:mculib3/src/periph/systick.h **** protected:
  14:mculib3/src/periph/systick.h ****    volatile SysTick_bits::CTRL     CTRL;  // Offset: 0x000 (R/W)  SysTick Control and Status Regist
  15:mculib3/src/periph/systick.h ****    volatile uint32_t               LOAD;  // Offset: 0x004 (R/W)  SysTick Reload Value Register
  16:mculib3/src/periph/systick.h ****    volatile uint32_t               VAL;   // Offset: 0x008 (R/W)  SysTick Current Value Register
  17:mculib3/src/periph/systick.h ****    volatile SysTick_bits::CALIB    CALIB; // Offset: 0x00C (R/ )  SysTick Calibration Register
  18:mculib3/src/periph/systick.h **** public:
  19:mculib3/src/periph/systick.h ****    using Clock = SysTick_bits::CTRL::Clock;
  20:mculib3/src/periph/systick.h ****    
  21:mculib3/src/periph/systick.h ****    void load (uint32_t v)   { LOAD = v; }
 1073              		.loc 8 21 0
 1074              		.cfi_startproc
 1075              		@ args = 0, pretend = 0, frame = 8
 1076              		@ frame_needed = 1, uses_anonymous_args = 0
 1077 0000 80B5     		push	{r7, lr}
 1078              	.LCFI60:
 1079              		.cfi_def_cfa_offset 8
 1080              		.cfi_offset 7, -8
 1081              		.cfi_offset 14, -4
 1082 0002 82B0     		sub	sp, sp, #8
 1083              	.LCFI61:
 1084              		.cfi_def_cfa_offset 16
 1085 0004 00AF     		add	r7, sp, #0
 1086              	.LCFI62:
 1087              		.cfi_def_cfa_register 7
 1088 0006 7860     		str	r0, [r7, #4]
 1089 0008 3960     		str	r1, [r7]
 1090              		.loc 8 21 0
 1091 000a 7B68     		ldr	r3, [r7, #4]
 1092 000c 3A68     		ldr	r2, [r7]
 1093 000e 5A60     		str	r2, [r3, #4]
 1094 0010 C046     		nop
 1095 0012 BD46     		mov	sp, r7
 1096 0014 02B0     		add	sp, sp, #8
 1097              		@ sp needed
 1098 0016 80BD     		pop	{r7, pc}
 1099              		.cfi_endproc
 1100              	.LFE2930:
 1102              		.section	.text._ZN3mcu7SysTick5clearEv,"axG",%progbits,_ZN3mcu7SysTick5clearEv,comdat
 1103              		.align	1
 1104              		.weak	_ZN3mcu7SysTick5clearEv
 1105              		.syntax unified
 1106              		.code	16
 1107              		.thumb_func
 1108              		.fpu softvfp
 1110              	_ZN3mcu7SysTick5clearEv:
 1111              	.LFB2931:
  22:mculib3/src/periph/systick.h ****    void clear()             { VAL = 0; }
 1112              		.loc 8 22 0
 1113              		.cfi_startproc
 1114              		@ args = 0, pretend = 0, frame = 8
 1115              		@ frame_needed = 1, uses_anonymous_args = 0
 1116 0000 80B5     		push	{r7, lr}
 1117              	.LCFI63:
 1118              		.cfi_def_cfa_offset 8
ARM GAS  /tmp/cc03sYHg.s 			page 45


 1119              		.cfi_offset 7, -8
 1120              		.cfi_offset 14, -4
 1121 0002 82B0     		sub	sp, sp, #8
 1122              	.LCFI64:
 1123              		.cfi_def_cfa_offset 16
 1124 0004 00AF     		add	r7, sp, #0
 1125              	.LCFI65:
 1126              		.cfi_def_cfa_register 7
 1127 0006 7860     		str	r0, [r7, #4]
 1128              		.loc 8 22 0
 1129 0008 7B68     		ldr	r3, [r7, #4]
 1130 000a 0022     		movs	r2, #0
 1131 000c 9A60     		str	r2, [r3, #8]
 1132 000e C046     		nop
 1133 0010 BD46     		mov	sp, r7
 1134 0012 02B0     		add	sp, sp, #8
 1135              		@ sp needed
 1136 0014 80BD     		pop	{r7, pc}
 1137              		.cfi_endproc
 1138              	.LFE2931:
 1140              		.section	.text._ZN3mcu7SysTick9setSourceENS_12SysTick_bits4CTRL5ClockE,"axG",%progbits,_ZN3mcu7Sys
 1141              		.align	1
 1142              		.weak	_ZN3mcu7SysTick9setSourceENS_12SysTick_bits4CTRL5ClockE
 1143              		.syntax unified
 1144              		.code	16
 1145              		.thumb_func
 1146              		.fpu softvfp
 1148              	_ZN3mcu7SysTick9setSourceENS_12SysTick_bits4CTRL5ClockE:
 1149              	.LFB2932:
  23:mculib3/src/periph/systick.h ****    void setSource (Clock v) { CTRL.CLKSOURCE = v; }
 1150              		.loc 8 23 0
 1151              		.cfi_startproc
 1152              		@ args = 0, pretend = 0, frame = 8
 1153              		@ frame_needed = 1, uses_anonymous_args = 0
 1154 0000 80B5     		push	{r7, lr}
 1155              	.LCFI66:
 1156              		.cfi_def_cfa_offset 8
 1157              		.cfi_offset 7, -8
 1158              		.cfi_offset 14, -4
 1159 0002 82B0     		sub	sp, sp, #8
 1160              	.LCFI67:
 1161              		.cfi_def_cfa_offset 16
 1162 0004 00AF     		add	r7, sp, #0
 1163              	.LCFI68:
 1164              		.cfi_def_cfa_register 7
 1165 0006 7860     		str	r0, [r7, #4]
 1166 0008 0A00     		movs	r2, r1
 1167 000a FB1C     		adds	r3, r7, #3
 1168 000c 1A70     		strb	r2, [r3]
 1169              		.loc 8 23 0
 1170 000e FB1C     		adds	r3, r7, #3
 1171 0010 1B78     		ldrb	r3, [r3]
 1172 0012 0122     		movs	r2, #1
 1173 0014 1340     		ands	r3, r2
 1174 0016 DAB2     		uxtb	r2, r3
 1175 0018 7B68     		ldr	r3, [r7, #4]
 1176 001a 0121     		movs	r1, #1
ARM GAS  /tmp/cc03sYHg.s 			page 46


 1177 001c 0A40     		ands	r2, r1
 1178 001e 9200     		lsls	r2, r2, #2
 1179 0020 1968     		ldr	r1, [r3]
 1180 0022 0420     		movs	r0, #4
 1181 0024 8143     		bics	r1, r0
 1182 0026 0A43     		orrs	r2, r1
 1183 0028 1A60     		str	r2, [r3]
 1184 002a C046     		nop
 1185 002c BD46     		mov	sp, r7
 1186 002e 02B0     		add	sp, sp, #8
 1187              		@ sp needed
 1188 0030 80BD     		pop	{r7, pc}
 1189              		.cfi_endproc
 1190              	.LFE2932:
 1192              		.section	.text._ZN3mcu7SysTick15enableInterruptEv,"axG",%progbits,_ZN3mcu7SysTick15enableInterrupt
 1193              		.align	1
 1194              		.weak	_ZN3mcu7SysTick15enableInterruptEv
 1195              		.syntax unified
 1196              		.code	16
 1197              		.thumb_func
 1198              		.fpu softvfp
 1200              	_ZN3mcu7SysTick15enableInterruptEv:
 1201              	.LFB2933:
  24:mculib3/src/periph/systick.h ****    void enableInterrupt()   { CTRL.TICKINT = true; }
 1202              		.loc 8 24 0
 1203              		.cfi_startproc
 1204              		@ args = 0, pretend = 0, frame = 8
 1205              		@ frame_needed = 1, uses_anonymous_args = 0
 1206 0000 80B5     		push	{r7, lr}
 1207              	.LCFI69:
 1208              		.cfi_def_cfa_offset 8
 1209              		.cfi_offset 7, -8
 1210              		.cfi_offset 14, -4
 1211 0002 82B0     		sub	sp, sp, #8
 1212              	.LCFI70:
 1213              		.cfi_def_cfa_offset 16
 1214 0004 00AF     		add	r7, sp, #0
 1215              	.LCFI71:
 1216              		.cfi_def_cfa_register 7
 1217 0006 7860     		str	r0, [r7, #4]
 1218              		.loc 8 24 0
 1219 0008 7B68     		ldr	r3, [r7, #4]
 1220 000a 1A68     		ldr	r2, [r3]
 1221 000c 0221     		movs	r1, #2
 1222 000e 0A43     		orrs	r2, r1
 1223 0010 1A60     		str	r2, [r3]
 1224 0012 C046     		nop
 1225 0014 BD46     		mov	sp, r7
 1226 0016 02B0     		add	sp, sp, #8
 1227              		@ sp needed
 1228 0018 80BD     		pop	{r7, pc}
 1229              		.cfi_endproc
 1230              	.LFE2933:
 1232              		.section	.text._ZN3mcu7SysTick6enableEv,"axG",%progbits,_ZN3mcu7SysTick6enableEv,comdat
 1233              		.align	1
 1234              		.weak	_ZN3mcu7SysTick6enableEv
 1235              		.syntax unified
ARM GAS  /tmp/cc03sYHg.s 			page 47


 1236              		.code	16
 1237              		.thumb_func
 1238              		.fpu softvfp
 1240              	_ZN3mcu7SysTick6enableEv:
 1241              	.LFB2934:
  25:mculib3/src/periph/systick.h ****    void enable()            { CTRL.ENABLE = true; }
 1242              		.loc 8 25 0
 1243              		.cfi_startproc
 1244              		@ args = 0, pretend = 0, frame = 8
 1245              		@ frame_needed = 1, uses_anonymous_args = 0
 1246 0000 80B5     		push	{r7, lr}
 1247              	.LCFI72:
 1248              		.cfi_def_cfa_offset 8
 1249              		.cfi_offset 7, -8
 1250              		.cfi_offset 14, -4
 1251 0002 82B0     		sub	sp, sp, #8
 1252              	.LCFI73:
 1253              		.cfi_def_cfa_offset 16
 1254 0004 00AF     		add	r7, sp, #0
 1255              	.LCFI74:
 1256              		.cfi_def_cfa_register 7
 1257 0006 7860     		str	r0, [r7, #4]
 1258              		.loc 8 25 0
 1259 0008 7B68     		ldr	r3, [r7, #4]
 1260 000a 1A68     		ldr	r2, [r3]
 1261 000c 0121     		movs	r1, #1
 1262 000e 0A43     		orrs	r2, r1
 1263 0010 1A60     		str	r2, [r3]
 1264 0012 C046     		nop
 1265 0014 BD46     		mov	sp, r7
 1266 0016 02B0     		add	sp, sp, #8
 1267              		@ sp needed
 1268 0018 80BD     		pop	{r7, pc}
 1269              		.cfi_endproc
 1270              	.LFE2934:
 1272              		.section	.text._ZN4ListI10SubscriberEC2Ev,"axG",%progbits,_ZN4ListI10SubscriberEC5Ev,comdat
 1273              		.align	1
 1274              		.weak	_ZN4ListI10SubscriberEC2Ev
 1275              		.syntax unified
 1276              		.code	16
 1277              		.thumb_func
 1278              		.fpu softvfp
 1280              	_ZN4ListI10SubscriberEC2Ev:
 1281              	.LFB2942:
 1282              		.file 9 "mculib3/src/list.h"
   1:mculib3/src/list.h **** #pragma once
   2:mculib3/src/list.h **** 
   3:mculib3/src/list.h **** #include <algorithm>
   4:mculib3/src/list.h **** 
   5:mculib3/src/list.h **** 
   6:mculib3/src/list.h **** template<class T> struct Listable
   7:mculib3/src/list.h **** {
   8:mculib3/src/list.h ****    T* prev {nullptr};
   9:mculib3/src/list.h ****    T* next {nullptr};
  10:mculib3/src/list.h **** };
  11:mculib3/src/list.h **** 
  12:mculib3/src/list.h **** template<class T> class List
ARM GAS  /tmp/cc03sYHg.s 			page 48


 1283              		.loc 9 12 0
 1284              		.cfi_startproc
 1285              		@ args = 0, pretend = 0, frame = 8
 1286              		@ frame_needed = 1, uses_anonymous_args = 0
 1287 0000 80B5     		push	{r7, lr}
 1288              	.LCFI75:
 1289              		.cfi_def_cfa_offset 8
 1290              		.cfi_offset 7, -8
 1291              		.cfi_offset 14, -4
 1292 0002 82B0     		sub	sp, sp, #8
 1293              	.LCFI76:
 1294              		.cfi_def_cfa_offset 16
 1295 0004 00AF     		add	r7, sp, #0
 1296              	.LCFI77:
 1297              		.cfi_def_cfa_register 7
 1298 0006 7860     		str	r0, [r7, #4]
 1299              	.LBB6:
 1300              		.loc 9 12 0
 1301 0008 7B68     		ldr	r3, [r7, #4]
 1302 000a 0022     		movs	r2, #0
 1303 000c 1A60     		str	r2, [r3]
 1304 000e 7B68     		ldr	r3, [r7, #4]
 1305 0010 0022     		movs	r2, #0
 1306 0012 5A60     		str	r2, [r3, #4]
 1307              	.LBE6:
 1308 0014 7B68     		ldr	r3, [r7, #4]
 1309 0016 1800     		movs	r0, r3
 1310 0018 BD46     		mov	sp, r7
 1311 001a 02B0     		add	sp, sp, #8
 1312              		@ sp needed
 1313 001c 80BD     		pop	{r7, pc}
 1314              		.cfi_endproc
 1315              	.LFE2942:
 1317              		.weak	_ZN4ListI10SubscriberEC1Ev
 1318              		.thumb_set _ZN4ListI10SubscriberEC1Ev,_ZN4ListI10SubscriberEC2Ev
 1319              		.section	.text._ZN9PublisherC2Ev,"axG",%progbits,_ZN9PublisherC5Ev,comdat
 1320              		.align	1
 1321              		.weak	_ZN9PublisherC2Ev
 1322              		.syntax unified
 1323              		.code	16
 1324              		.thumb_func
 1325              		.fpu softvfp
 1327              	_ZN9PublisherC2Ev:
 1328              	.LFB2944:
  11:mculib3/src/subscriber.h **** {
 1329              		.loc 7 11 0
 1330              		.cfi_startproc
 1331              		@ args = 0, pretend = 0, frame = 8
 1332              		@ frame_needed = 1, uses_anonymous_args = 0
 1333 0000 80B5     		push	{r7, lr}
 1334              	.LCFI78:
 1335              		.cfi_def_cfa_offset 8
 1336              		.cfi_offset 7, -8
 1337              		.cfi_offset 14, -4
 1338 0002 82B0     		sub	sp, sp, #8
 1339              	.LCFI79:
 1340              		.cfi_def_cfa_offset 16
ARM GAS  /tmp/cc03sYHg.s 			page 49


 1341 0004 00AF     		add	r7, sp, #0
 1342              	.LCFI80:
 1343              		.cfi_def_cfa_register 7
 1344 0006 7860     		str	r0, [r7, #4]
 1345              	.LBB7:
  11:mculib3/src/subscriber.h **** {
 1346              		.loc 7 11 0
 1347 0008 7B68     		ldr	r3, [r7, #4]
 1348 000a 1800     		movs	r0, r3
 1349 000c FFF7FEFF 		bl	_ZN4ListI10SubscriberEC2Ev
 1350              	.LBE7:
 1351 0010 7B68     		ldr	r3, [r7, #4]
 1352 0012 1800     		movs	r0, r3
 1353 0014 BD46     		mov	sp, r7
 1354 0016 02B0     		add	sp, sp, #8
 1355              		@ sp needed
 1356 0018 80BD     		pop	{r7, pc}
 1357              		.cfi_endproc
 1358              	.LFE2944:
 1360              		.weak	_ZN9PublisherC1Ev
 1361              		.thumb_set _ZN9PublisherC1Ev,_ZN9PublisherC2Ev
 1362              		.section	.text._ZN11TickUpdaterC2Ev,"axG",%progbits,_ZN11TickUpdaterC5Ev,comdat
 1363              		.align	1
 1364              		.weak	_ZN11TickUpdaterC2Ev
 1365              		.syntax unified
 1366              		.code	16
 1367              		.thumb_func
 1368              		.fpu softvfp
 1370              	_ZN11TickUpdaterC2Ev:
 1371              	.LFB2946:
 1372              		.file 10 "mculib3/src/timers.h"
   1:mculib3/src/timers.h **** #pragma once
   2:mculib3/src/timers.h **** 
   3:mculib3/src/timers.h **** #include <cstdint>
   4:mculib3/src/timers.h **** #include "subscriber.h"
   5:mculib3/src/timers.h **** #include "systick.h"
   6:mculib3/src/timers.h **** #ifdef USE_MOCK_SYSTICK
   7:mculib3/src/timers.h **** using mock::SysTick;
   8:mculib3/src/timers.h **** #else
   9:mculib3/src/timers.h **** using mcu::SysTick;
  10:mculib3/src/timers.h **** #endif
  11:mculib3/src/timers.h **** 
  12:mculib3/src/timers.h **** 
  13:mculib3/src/timers.h **** 
  14:mculib3/src/timers.h **** 
  15:mculib3/src/timers.h **** 
  16:mculib3/src/timers.h **** struct TickUpdater : Publisher
  17:mculib3/src/timers.h **** {
  18:mculib3/src/timers.h **** // #if not defined(TEST) 
  19:mculib3/src/timers.h ****    TickUpdater() { mcu::make_reference<mcu::Periph::SysTick>().initInterrupt<1>(); }
 1373              		.loc 10 19 0
 1374              		.cfi_startproc
 1375              		@ args = 0, pretend = 0, frame = 8
 1376              		@ frame_needed = 1, uses_anonymous_args = 0
 1377 0000 80B5     		push	{r7, lr}
 1378              	.LCFI81:
 1379              		.cfi_def_cfa_offset 8
ARM GAS  /tmp/cc03sYHg.s 			page 50


 1380              		.cfi_offset 7, -8
 1381              		.cfi_offset 14, -4
 1382 0002 82B0     		sub	sp, sp, #8
 1383              	.LCFI82:
 1384              		.cfi_def_cfa_offset 16
 1385 0004 00AF     		add	r7, sp, #0
 1386              	.LCFI83:
 1387              		.cfi_def_cfa_register 7
 1388 0006 7860     		str	r0, [r7, #4]
 1389              	.LBB8:
 1390              		.loc 10 19 0
 1391 0008 7B68     		ldr	r3, [r7, #4]
 1392 000a 1800     		movs	r0, r3
 1393 000c FFF7FEFF 		bl	_ZN9PublisherC2Ev
 1394 0010 FFF7FEFF 		bl	_ZN3mcu14make_referenceILNS_6PeriphE13EEENSt9enable_ifIXeqT_LS1_13EERNS_7SysTickEE4typeEv
 1395 0014 0300     		movs	r3, r0
 1396 0016 1800     		movs	r0, r3
 1397 0018 FFF7FEFF 		bl	_ZN3mcu7SysTick13initInterruptILt1EEEvv
 1398              	.LBE8:
 1399 001c 7B68     		ldr	r3, [r7, #4]
 1400 001e 1800     		movs	r0, r3
 1401 0020 BD46     		mov	sp, r7
 1402 0022 02B0     		add	sp, sp, #8
 1403              		@ sp needed
 1404 0024 80BD     		pop	{r7, pc}
 1405              		.cfi_endproc
 1406              	.LFE2946:
 1408              		.weak	_ZN11TickUpdaterC1Ev
 1409              		.thumb_set _ZN11TickUpdaterC1Ev,_ZN11TickUpdaterC2Ev
 1410              		.global	tickUpdater
 1411              		.section	.bss.tickUpdater,"aw",%nobits
 1412              		.align	2
 1415              	tickUpdater:
 1416 0000 00000000 		.space	8
 1416      00000000 
 1417              		.section	.text.SysTick_Handler,"ax",%progbits
 1418              		.align	1
 1419              		.global	SysTick_Handler
 1420              		.syntax unified
 1421              		.code	16
 1422              		.thumb_func
 1423              		.fpu softvfp
 1425              	SysTick_Handler:
 1426              	.LFB2948:
  20:mculib3/src/timers.h **** // #endif
  21:mculib3/src/timers.h ****    // using List::clear_subscribe;
  22:mculib3/src/timers.h **** } tickUpdater;
  23:mculib3/src/timers.h **** 
  24:mculib3/src/timers.h **** extern "C" void SysTick_Handler()
  25:mculib3/src/timers.h **** {
 1427              		.loc 10 25 0
 1428              		.cfi_startproc
 1429              		@ args = 0, pretend = 0, frame = 0
 1430              		@ frame_needed = 1, uses_anonymous_args = 0
 1431 0000 80B5     		push	{r7, lr}
 1432              	.LCFI84:
 1433              		.cfi_def_cfa_offset 8
ARM GAS  /tmp/cc03sYHg.s 			page 51


 1434              		.cfi_offset 7, -8
 1435              		.cfi_offset 14, -4
 1436 0002 00AF     		add	r7, sp, #0
 1437              	.LCFI85:
 1438              		.cfi_def_cfa_register 7
  26:mculib3/src/timers.h ****    tickUpdater.notify();
 1439              		.loc 10 26 0
 1440 0004 034B     		ldr	r3, .L78
 1441 0006 1800     		movs	r0, r3
 1442 0008 FFF7FEFF 		bl	_ZN9Publisher6notifyEv
  27:mculib3/src/timers.h **** }
 1443              		.loc 10 27 0
 1444 000c C046     		nop
 1445 000e BD46     		mov	sp, r7
 1446              		@ sp needed
 1447 0010 80BD     		pop	{r7, pc}
 1448              	.L79:
 1449 0012 C046     		.align	2
 1450              	.L78:
 1451 0014 00000000 		.word	tickUpdater
 1452              		.cfi_endproc
 1453              	.LFE2948:
 1455              		.section	.text._ZN8ListableI10SubscriberEC2Ev,"axG",%progbits,_ZN8ListableI10SubscriberEC5Ev,comda
 1456              		.align	1
 1457              		.weak	_ZN8ListableI10SubscriberEC2Ev
 1458              		.syntax unified
 1459              		.code	16
 1460              		.thumb_func
 1461              		.fpu softvfp
 1463              	_ZN8ListableI10SubscriberEC2Ev:
 1464              	.LFB2953:
   6:mculib3/src/list.h **** {
 1465              		.loc 9 6 0
 1466              		.cfi_startproc
 1467              		@ args = 0, pretend = 0, frame = 8
 1468              		@ frame_needed = 1, uses_anonymous_args = 0
 1469 0000 80B5     		push	{r7, lr}
 1470              	.LCFI86:
 1471              		.cfi_def_cfa_offset 8
 1472              		.cfi_offset 7, -8
 1473              		.cfi_offset 14, -4
 1474 0002 82B0     		sub	sp, sp, #8
 1475              	.LCFI87:
 1476              		.cfi_def_cfa_offset 16
 1477 0004 00AF     		add	r7, sp, #0
 1478              	.LCFI88:
 1479              		.cfi_def_cfa_register 7
 1480 0006 7860     		str	r0, [r7, #4]
 1481              	.LBB9:
   6:mculib3/src/list.h **** {
 1482              		.loc 9 6 0
 1483 0008 7B68     		ldr	r3, [r7, #4]
 1484 000a 0022     		movs	r2, #0
 1485 000c 1A60     		str	r2, [r3]
 1486 000e 7B68     		ldr	r3, [r7, #4]
 1487 0010 0022     		movs	r2, #0
 1488 0012 5A60     		str	r2, [r3, #4]
ARM GAS  /tmp/cc03sYHg.s 			page 52


 1489              	.LBE9:
 1490 0014 7B68     		ldr	r3, [r7, #4]
 1491 0016 1800     		movs	r0, r3
 1492 0018 BD46     		mov	sp, r7
 1493 001a 02B0     		add	sp, sp, #8
 1494              		@ sp needed
 1495 001c 80BD     		pop	{r7, pc}
 1496              		.cfi_endproc
 1497              	.LFE2953:
 1499              		.weak	_ZN8ListableI10SubscriberEC1Ev
 1500              		.thumb_set _ZN8ListableI10SubscriberEC1Ev,_ZN8ListableI10SubscriberEC2Ev
 1501              		.section	.text._ZN10SubscriberC2Ev,"axG",%progbits,_ZN10SubscriberC5Ev,comdat
 1502              		.align	1
 1503              		.weak	_ZN10SubscriberC2Ev
 1504              		.syntax unified
 1505              		.code	16
 1506              		.thumb_func
 1507              		.fpu softvfp
 1509              	_ZN10SubscriberC2Ev:
 1510              	.LFB2955:
   7:mculib3/src/subscriber.h ****    virtual void notify() = 0;
 1511              		.loc 7 7 0
 1512              		.cfi_startproc
 1513              		@ args = 0, pretend = 0, frame = 8
 1514              		@ frame_needed = 1, uses_anonymous_args = 0
 1515 0000 80B5     		push	{r7, lr}
 1516              	.LCFI89:
 1517              		.cfi_def_cfa_offset 8
 1518              		.cfi_offset 7, -8
 1519              		.cfi_offset 14, -4
 1520 0002 82B0     		sub	sp, sp, #8
 1521              	.LCFI90:
 1522              		.cfi_def_cfa_offset 16
 1523 0004 00AF     		add	r7, sp, #0
 1524              	.LCFI91:
 1525              		.cfi_def_cfa_register 7
 1526 0006 7860     		str	r0, [r7, #4]
 1527              	.LBB10:
   7:mculib3/src/subscriber.h ****    virtual void notify() = 0;
 1528              		.loc 7 7 0
 1529 0008 7B68     		ldr	r3, [r7, #4]
 1530 000a 0433     		adds	r3, r3, #4
 1531 000c 1800     		movs	r0, r3
 1532 000e FFF7FEFF 		bl	_ZN8ListableI10SubscriberEC2Ev
 1533 0012 044A     		ldr	r2, .L84
 1534 0014 7B68     		ldr	r3, [r7, #4]
 1535 0016 1A60     		str	r2, [r3]
 1536              	.LBE10:
 1537 0018 7B68     		ldr	r3, [r7, #4]
 1538 001a 1800     		movs	r0, r3
 1539 001c BD46     		mov	sp, r7
 1540 001e 02B0     		add	sp, sp, #8
 1541              		@ sp needed
 1542 0020 80BD     		pop	{r7, pc}
 1543              	.L85:
 1544 0022 C046     		.align	2
 1545              	.L84:
ARM GAS  /tmp/cc03sYHg.s 			page 53


 1546 0024 08000000 		.word	_ZTV10Subscriber+8
 1547              		.cfi_endproc
 1548              	.LFE2955:
 1550              		.weak	_ZN10SubscriberC1Ev
 1551              		.thumb_set _ZN10SubscriberC1Ev,_ZN10SubscriberC2Ev
 1552              		.section	.text._ZN14TickSubscriberC2Ev,"axG",%progbits,_ZN14TickSubscriberC5Ev,comdat
 1553              		.align	1
 1554              		.weak	_ZN14TickSubscriberC2Ev
 1555              		.syntax unified
 1556              		.code	16
 1557              		.thumb_func
 1558              		.fpu softvfp
 1560              	_ZN14TickSubscriberC2Ev:
 1561              	.LFB2957:
  28:mculib3/src/timers.h **** 
  29:mculib3/src/timers.h **** 
  30:mculib3/src/timers.h **** class TickSubscriber : Subscriber
 1562              		.loc 10 30 0
 1563              		.cfi_startproc
 1564              		@ args = 0, pretend = 0, frame = 8
 1565              		@ frame_needed = 1, uses_anonymous_args = 0
 1566 0000 80B5     		push	{r7, lr}
 1567              	.LCFI92:
 1568              		.cfi_def_cfa_offset 8
 1569              		.cfi_offset 7, -8
 1570              		.cfi_offset 14, -4
 1571 0002 82B0     		sub	sp, sp, #8
 1572              	.LCFI93:
 1573              		.cfi_def_cfa_offset 16
 1574 0004 00AF     		add	r7, sp, #0
 1575              	.LCFI94:
 1576              		.cfi_def_cfa_register 7
 1577 0006 7860     		str	r0, [r7, #4]
 1578              	.LBB11:
 1579              		.loc 10 30 0
 1580 0008 7B68     		ldr	r3, [r7, #4]
 1581 000a 1800     		movs	r0, r3
 1582 000c FFF7FEFF 		bl	_ZN10SubscriberC2Ev
 1583 0010 054A     		ldr	r2, .L88
 1584 0012 7B68     		ldr	r3, [r7, #4]
 1585 0014 1A60     		str	r2, [r3]
 1586 0016 7B68     		ldr	r3, [r7, #4]
 1587 0018 0022     		movs	r2, #0
 1588 001a 1A73     		strb	r2, [r3, #12]
 1589              	.LBE11:
 1590 001c 7B68     		ldr	r3, [r7, #4]
 1591 001e 1800     		movs	r0, r3
 1592 0020 BD46     		mov	sp, r7
 1593 0022 02B0     		add	sp, sp, #8
 1594              		@ sp needed
 1595 0024 80BD     		pop	{r7, pc}
 1596              	.L89:
 1597 0026 C046     		.align	2
 1598              	.L88:
 1599 0028 08000000 		.word	_ZTV14TickSubscriber+8
 1600              		.cfi_endproc
 1601              	.LFE2957:
ARM GAS  /tmp/cc03sYHg.s 			page 54


 1603              		.weak	_ZN14TickSubscriberC1Ev
 1604              		.thumb_set _ZN14TickSubscriberC1Ev,_ZN14TickSubscriberC2Ev
 1605              		.section	.text._ZN5Timer6notifyEv,"ax",%progbits
 1606              		.align	1
 1607              		.global	_ZN5Timer6notifyEv
 1608              		.syntax unified
 1609              		.code	16
 1610              		.thumb_func
 1611              		.fpu softvfp
 1613              	_ZN5Timer6notifyEv:
 1614              	.LFB2964:
  31:mculib3/src/timers.h **** {
  32:mculib3/src/timers.h **** protected:
  33:mculib3/src/timers.h ****    bool subscribed {false};
  34:mculib3/src/timers.h ****    void tick_subscribe();
  35:mculib3/src/timers.h ****    void tick_unsubscribe();
  36:mculib3/src/timers.h **** public:
  37:mculib3/src/timers.h ****    
  38:mculib3/src/timers.h **** };
  39:mculib3/src/timers.h **** 
  40:mculib3/src/timers.h **** class Timer : TickSubscriber
  41:mculib3/src/timers.h **** {
  42:mculib3/src/timers.h **** public:
  43:mculib3/src/timers.h ****    Timer() = default;
  44:mculib3/src/timers.h ****    Timer (uint32_t ms) { start(ms); }
  45:mculib3/src/timers.h ****    ~Timer () {tick_unsubscribe();}
  46:mculib3/src/timers.h **** 
  47:mculib3/src/timers.h ****    void     start   (uint32_t ms); ///     
  48:mculib3/src/timers.h ****    bool     event();   ///  true,     
  49:mculib3/src/timers.h ****    bool     done();    ///  true,      
  50:mculib3/src/timers.h ****    void     pause();   ///  ,    
  51:mculib3/src/timers.h ****    void     start();   ///      
  52:mculib3/src/timers.h ****    void     stop();    ///     
  53:mculib3/src/timers.h ****    bool     isGreater (uint32_t val); ///  true,   
  54:mculib3/src/timers.h ****    bool     isCount(); ///  true  ,   
  55:mculib3/src/timers.h ****    uint32_t timePassed(); ///   
  56:mculib3/src/timers.h ****    uint32_t timeLeft();   ///   
  57:mculib3/src/timers.h ****    template<class function>
  58:mculib3/src/timers.h ****    void     event (function); ///  function,    
  59:mculib3/src/timers.h **** 
  60:mculib3/src/timers.h ****    volatile uint32_t timeSet {0};
  61:mculib3/src/timers.h **** private:
  62:mculib3/src/timers.h ****    volatile uint32_t timePassed_ {0};	
  63:mculib3/src/timers.h **** 
  64:mculib3/src/timers.h ****    void notify() override;
  65:mculib3/src/timers.h **** };
  66:mculib3/src/timers.h **** 
  67:mculib3/src/timers.h **** 
  68:mculib3/src/timers.h **** 
  69:mculib3/src/timers.h **** 
  70:mculib3/src/timers.h **** void Timer::notify()
  71:mculib3/src/timers.h **** {
 1615              		.loc 10 71 0
 1616              		.cfi_startproc
 1617              		@ args = 0, pretend = 0, frame = 8
 1618              		@ frame_needed = 1, uses_anonymous_args = 0
 1619 0000 80B5     		push	{r7, lr}
ARM GAS  /tmp/cc03sYHg.s 			page 55


 1620              	.LCFI95:
 1621              		.cfi_def_cfa_offset 8
 1622              		.cfi_offset 7, -8
 1623              		.cfi_offset 14, -4
 1624 0002 82B0     		sub	sp, sp, #8
 1625              	.LCFI96:
 1626              		.cfi_def_cfa_offset 16
 1627 0004 00AF     		add	r7, sp, #0
 1628              	.LCFI97:
 1629              		.cfi_def_cfa_register 7
 1630 0006 7860     		str	r0, [r7, #4]
  72:mculib3/src/timers.h ****    timePassed_++;
 1631              		.loc 10 72 0
 1632 0008 7B68     		ldr	r3, [r7, #4]
 1633 000a 5B69     		ldr	r3, [r3, #20]
 1634 000c 5A1C     		adds	r2, r3, #1
 1635 000e 7B68     		ldr	r3, [r7, #4]
 1636 0010 5A61     		str	r2, [r3, #20]
  73:mculib3/src/timers.h **** }
 1637              		.loc 10 73 0
 1638 0012 C046     		nop
 1639 0014 BD46     		mov	sp, r7
 1640 0016 02B0     		add	sp, sp, #8
 1641              		@ sp needed
 1642 0018 80BD     		pop	{r7, pc}
 1643              		.cfi_endproc
 1644              	.LFE2964:
 1646              		.section	.text._ZN5Timer5startEm,"ax",%progbits
 1647              		.align	1
 1648              		.global	_ZN5Timer5startEm
 1649              		.syntax unified
 1650              		.code	16
 1651              		.thumb_func
 1652              		.fpu softvfp
 1654              	_ZN5Timer5startEm:
 1655              	.LFB2965:
  74:mculib3/src/timers.h **** 
  75:mculib3/src/timers.h **** 
  76:mculib3/src/timers.h **** 
  77:mculib3/src/timers.h **** void Timer::start (uint32_t ms)
  78:mculib3/src/timers.h **** {
 1656              		.loc 10 78 0
 1657              		.cfi_startproc
 1658              		@ args = 0, pretend = 0, frame = 8
 1659              		@ frame_needed = 1, uses_anonymous_args = 0
 1660 0000 80B5     		push	{r7, lr}
 1661              	.LCFI98:
 1662              		.cfi_def_cfa_offset 8
 1663              		.cfi_offset 7, -8
 1664              		.cfi_offset 14, -4
 1665 0002 82B0     		sub	sp, sp, #8
 1666              	.LCFI99:
 1667              		.cfi_def_cfa_offset 16
 1668 0004 00AF     		add	r7, sp, #0
 1669              	.LCFI100:
 1670              		.cfi_def_cfa_register 7
 1671 0006 7860     		str	r0, [r7, #4]
ARM GAS  /tmp/cc03sYHg.s 			page 56


 1672 0008 3960     		str	r1, [r7]
  79:mculib3/src/timers.h ****    timeSet = ms;
 1673              		.loc 10 79 0
 1674 000a 7B68     		ldr	r3, [r7, #4]
 1675 000c 3A68     		ldr	r2, [r7]
 1676 000e 1A61     		str	r2, [r3, #16]
  80:mculib3/src/timers.h ****    tick_subscribe();
 1677              		.loc 10 80 0
 1678 0010 7B68     		ldr	r3, [r7, #4]
 1679 0012 1800     		movs	r0, r3
 1680 0014 FFF7FEFF 		bl	_ZN14TickSubscriber14tick_subscribeEv
  81:mculib3/src/timers.h **** }
 1681              		.loc 10 81 0
 1682 0018 C046     		nop
 1683 001a BD46     		mov	sp, r7
 1684 001c 02B0     		add	sp, sp, #8
 1685              		@ sp needed
 1686 001e 80BD     		pop	{r7, pc}
 1687              		.cfi_endproc
 1688              	.LFE2965:
 1690              		.section	.text._ZN5Timer5eventEv,"ax",%progbits
 1691              		.align	1
 1692              		.global	_ZN5Timer5eventEv
 1693              		.syntax unified
 1694              		.code	16
 1695              		.thumb_func
 1696              		.fpu softvfp
 1698              	_ZN5Timer5eventEv:
 1699              	.LFB2966:
  82:mculib3/src/timers.h **** 
  83:mculib3/src/timers.h **** 
  84:mculib3/src/timers.h **** bool Timer::event()
  85:mculib3/src/timers.h **** {
 1700              		.loc 10 85 0
 1701              		.cfi_startproc
 1702              		@ args = 0, pretend = 0, frame = 8
 1703              		@ frame_needed = 1, uses_anonymous_args = 0
 1704 0000 80B5     		push	{r7, lr}
 1705              	.LCFI101:
 1706              		.cfi_def_cfa_offset 8
 1707              		.cfi_offset 7, -8
 1708              		.cfi_offset 14, -4
 1709 0002 82B0     		sub	sp, sp, #8
 1710              	.LCFI102:
 1711              		.cfi_def_cfa_offset 16
 1712 0004 00AF     		add	r7, sp, #0
 1713              	.LCFI103:
 1714              		.cfi_def_cfa_register 7
 1715 0006 7860     		str	r0, [r7, #4]
  86:mculib3/src/timers.h ****    if (timePassed_ >= timeSet) {
 1716              		.loc 10 86 0
 1717 0008 7B68     		ldr	r3, [r7, #4]
 1718 000a 5969     		ldr	r1, [r3, #20]
 1719 000c 7B68     		ldr	r3, [r7, #4]
 1720 000e 1A69     		ldr	r2, [r3, #16]
 1721 0010 0023     		movs	r3, #0
 1722 0012 9142     		cmp	r1, r2
ARM GAS  /tmp/cc03sYHg.s 			page 57


 1723 0014 5B41     		adcs	r3, r3, r3
 1724 0016 DBB2     		uxtb	r3, r3
 1725 0018 002B     		cmp	r3, #0
 1726 001a 04D0     		beq	.L93
  87:mculib3/src/timers.h ****       timePassed_ = 0;
 1727              		.loc 10 87 0
 1728 001c 7B68     		ldr	r3, [r7, #4]
 1729 001e 0022     		movs	r2, #0
 1730 0020 5A61     		str	r2, [r3, #20]
  88:mculib3/src/timers.h ****       return (true);
 1731              		.loc 10 88 0
 1732 0022 0123     		movs	r3, #1
 1733 0024 00E0     		b	.L94
 1734              	.L93:
  89:mculib3/src/timers.h ****    } else {
  90:mculib3/src/timers.h ****       return (false);
 1735              		.loc 10 90 0
 1736 0026 0023     		movs	r3, #0
 1737              	.L94:
  91:mculib3/src/timers.h ****    }
  92:mculib3/src/timers.h **** }
 1738              		.loc 10 92 0
 1739 0028 1800     		movs	r0, r3
 1740 002a BD46     		mov	sp, r7
 1741 002c 02B0     		add	sp, sp, #8
 1742              		@ sp needed
 1743 002e 80BD     		pop	{r7, pc}
 1744              		.cfi_endproc
 1745              	.LFE2966:
 1747              		.section	.text._ZN5Timer4stopEv,"ax",%progbits
 1748              		.align	1
 1749              		.global	_ZN5Timer4stopEv
 1750              		.syntax unified
 1751              		.code	16
 1752              		.thumb_func
 1753              		.fpu softvfp
 1755              	_ZN5Timer4stopEv:
 1756              	.LFB2968:
  93:mculib3/src/timers.h **** 
  94:mculib3/src/timers.h **** 
  95:mculib3/src/timers.h **** template<class Functor>
  96:mculib3/src/timers.h **** void Timer::event (Functor functor)
  97:mculib3/src/timers.h **** {
  98:mculib3/src/timers.h ****    if (timePassed_ >= timeSet) {
  99:mculib3/src/timers.h ****       timePassed_ = 0;
 100:mculib3/src/timers.h ****       functor();
 101:mculib3/src/timers.h ****    }
 102:mculib3/src/timers.h **** }
 103:mculib3/src/timers.h **** 
 104:mculib3/src/timers.h **** 
 105:mculib3/src/timers.h **** void Timer::stop()
 106:mculib3/src/timers.h **** {
 1757              		.loc 10 106 0
 1758              		.cfi_startproc
 1759              		@ args = 0, pretend = 0, frame = 8
 1760              		@ frame_needed = 1, uses_anonymous_args = 0
 1761 0000 80B5     		push	{r7, lr}
ARM GAS  /tmp/cc03sYHg.s 			page 58


 1762              	.LCFI104:
 1763              		.cfi_def_cfa_offset 8
 1764              		.cfi_offset 7, -8
 1765              		.cfi_offset 14, -4
 1766 0002 82B0     		sub	sp, sp, #8
 1767              	.LCFI105:
 1768              		.cfi_def_cfa_offset 16
 1769 0004 00AF     		add	r7, sp, #0
 1770              	.LCFI106:
 1771              		.cfi_def_cfa_register 7
 1772 0006 7860     		str	r0, [r7, #4]
 107:mculib3/src/timers.h ****    timePassed_ = 0;
 1773              		.loc 10 107 0
 1774 0008 7B68     		ldr	r3, [r7, #4]
 1775 000a 0022     		movs	r2, #0
 1776 000c 5A61     		str	r2, [r3, #20]
 108:mculib3/src/timers.h ****    tick_unsubscribe();
 1777              		.loc 10 108 0
 1778 000e 7B68     		ldr	r3, [r7, #4]
 1779 0010 1800     		movs	r0, r3
 1780 0012 FFF7FEFF 		bl	_ZN14TickSubscriber16tick_unsubscribeEv
 109:mculib3/src/timers.h **** }
 1781              		.loc 10 109 0
 1782 0016 C046     		nop
 1783 0018 BD46     		mov	sp, r7
 1784 001a 02B0     		add	sp, sp, #8
 1785              		@ sp needed
 1786 001c 80BD     		pop	{r7, pc}
 1787              		.cfi_endproc
 1788              	.LFE2968:
 1790              		.section	.text._ZN5Timer4doneEv,"ax",%progbits
 1791              		.align	1
 1792              		.global	_ZN5Timer4doneEv
 1793              		.syntax unified
 1794              		.code	16
 1795              		.thumb_func
 1796              		.fpu softvfp
 1798              	_ZN5Timer4doneEv:
 1799              	.LFB2969:
 110:mculib3/src/timers.h **** 
 111:mculib3/src/timers.h **** 
 112:mculib3/src/timers.h **** bool     Timer::done()       { return timePassed_ >= timeSet; }
 1800              		.loc 10 112 0
 1801              		.cfi_startproc
 1802              		@ args = 0, pretend = 0, frame = 8
 1803              		@ frame_needed = 1, uses_anonymous_args = 0
 1804 0000 80B5     		push	{r7, lr}
 1805              	.LCFI107:
 1806              		.cfi_def_cfa_offset 8
 1807              		.cfi_offset 7, -8
 1808              		.cfi_offset 14, -4
 1809 0002 82B0     		sub	sp, sp, #8
 1810              	.LCFI108:
 1811              		.cfi_def_cfa_offset 16
 1812 0004 00AF     		add	r7, sp, #0
 1813              	.LCFI109:
 1814              		.cfi_def_cfa_register 7
ARM GAS  /tmp/cc03sYHg.s 			page 59


 1815 0006 7860     		str	r0, [r7, #4]
 1816              		.loc 10 112 0
 1817 0008 7B68     		ldr	r3, [r7, #4]
 1818 000a 5969     		ldr	r1, [r3, #20]
 1819 000c 7B68     		ldr	r3, [r7, #4]
 1820 000e 1A69     		ldr	r2, [r3, #16]
 1821 0010 0023     		movs	r3, #0
 1822 0012 9142     		cmp	r1, r2
 1823 0014 5B41     		adcs	r3, r3, r3
 1824 0016 DBB2     		uxtb	r3, r3
 1825 0018 1800     		movs	r0, r3
 1826 001a BD46     		mov	sp, r7
 1827 001c 02B0     		add	sp, sp, #8
 1828              		@ sp needed
 1829 001e 80BD     		pop	{r7, pc}
 1830              		.cfi_endproc
 1831              	.LFE2969:
 1833              		.section	.text._ZN5Timer5pauseEv,"ax",%progbits
 1834              		.align	1
 1835              		.global	_ZN5Timer5pauseEv
 1836              		.syntax unified
 1837              		.code	16
 1838              		.thumb_func
 1839              		.fpu softvfp
 1841              	_ZN5Timer5pauseEv:
 1842              	.LFB2970:
 113:mculib3/src/timers.h **** void     Timer::pause()      { tick_unsubscribe(); }
 1843              		.loc 10 113 0
 1844              		.cfi_startproc
 1845              		@ args = 0, pretend = 0, frame = 8
 1846              		@ frame_needed = 1, uses_anonymous_args = 0
 1847 0000 80B5     		push	{r7, lr}
 1848              	.LCFI110:
 1849              		.cfi_def_cfa_offset 8
 1850              		.cfi_offset 7, -8
 1851              		.cfi_offset 14, -4
 1852 0002 82B0     		sub	sp, sp, #8
 1853              	.LCFI111:
 1854              		.cfi_def_cfa_offset 16
 1855 0004 00AF     		add	r7, sp, #0
 1856              	.LCFI112:
 1857              		.cfi_def_cfa_register 7
 1858 0006 7860     		str	r0, [r7, #4]
 1859              		.loc 10 113 0
 1860 0008 7B68     		ldr	r3, [r7, #4]
 1861 000a 1800     		movs	r0, r3
 1862 000c FFF7FEFF 		bl	_ZN14TickSubscriber16tick_unsubscribeEv
 1863 0010 C046     		nop
 1864 0012 BD46     		mov	sp, r7
 1865 0014 02B0     		add	sp, sp, #8
 1866              		@ sp needed
 1867 0016 80BD     		pop	{r7, pc}
 1868              		.cfi_endproc
 1869              	.LFE2970:
 1871              		.section	.text._ZN5Timer5startEv,"ax",%progbits
 1872              		.align	1
 1873              		.global	_ZN5Timer5startEv
ARM GAS  /tmp/cc03sYHg.s 			page 60


 1874              		.syntax unified
 1875              		.code	16
 1876              		.thumb_func
 1877              		.fpu softvfp
 1879              	_ZN5Timer5startEv:
 1880              	.LFB2971:
 114:mculib3/src/timers.h **** void     Timer::start()      { tick_subscribe();  }
 1881              		.loc 10 114 0
 1882              		.cfi_startproc
 1883              		@ args = 0, pretend = 0, frame = 8
 1884              		@ frame_needed = 1, uses_anonymous_args = 0
 1885 0000 80B5     		push	{r7, lr}
 1886              	.LCFI113:
 1887              		.cfi_def_cfa_offset 8
 1888              		.cfi_offset 7, -8
 1889              		.cfi_offset 14, -4
 1890 0002 82B0     		sub	sp, sp, #8
 1891              	.LCFI114:
 1892              		.cfi_def_cfa_offset 16
 1893 0004 00AF     		add	r7, sp, #0
 1894              	.LCFI115:
 1895              		.cfi_def_cfa_register 7
 1896 0006 7860     		str	r0, [r7, #4]
 1897              		.loc 10 114 0
 1898 0008 7B68     		ldr	r3, [r7, #4]
 1899 000a 1800     		movs	r0, r3
 1900 000c FFF7FEFF 		bl	_ZN14TickSubscriber14tick_subscribeEv
 1901 0010 C046     		nop
 1902 0012 BD46     		mov	sp, r7
 1903 0014 02B0     		add	sp, sp, #8
 1904              		@ sp needed
 1905 0016 80BD     		pop	{r7, pc}
 1906              		.cfi_endproc
 1907              	.LFE2971:
 1909              		.section	.text._ZN5Timer7isCountEv,"ax",%progbits
 1910              		.align	1
 1911              		.global	_ZN5Timer7isCountEv
 1912              		.syntax unified
 1913              		.code	16
 1914              		.thumb_func
 1915              		.fpu softvfp
 1917              	_ZN5Timer7isCountEv:
 1918              	.LFB2972:
 115:mculib3/src/timers.h **** bool     Timer::isCount()    { return subscribed; }
 1919              		.loc 10 115 0
 1920              		.cfi_startproc
 1921              		@ args = 0, pretend = 0, frame = 8
 1922              		@ frame_needed = 1, uses_anonymous_args = 0
 1923 0000 80B5     		push	{r7, lr}
 1924              	.LCFI116:
 1925              		.cfi_def_cfa_offset 8
 1926              		.cfi_offset 7, -8
 1927              		.cfi_offset 14, -4
 1928 0002 82B0     		sub	sp, sp, #8
 1929              	.LCFI117:
 1930              		.cfi_def_cfa_offset 16
 1931 0004 00AF     		add	r7, sp, #0
ARM GAS  /tmp/cc03sYHg.s 			page 61


 1932              	.LCFI118:
 1933              		.cfi_def_cfa_register 7
 1934 0006 7860     		str	r0, [r7, #4]
 1935              		.loc 10 115 0
 1936 0008 7B68     		ldr	r3, [r7, #4]
 1937 000a 1B7B     		ldrb	r3, [r3, #12]
 1938 000c 1800     		movs	r0, r3
 1939 000e BD46     		mov	sp, r7
 1940 0010 02B0     		add	sp, sp, #8
 1941              		@ sp needed
 1942 0012 80BD     		pop	{r7, pc}
 1943              		.cfi_endproc
 1944              	.LFE2972:
 1946              		.section	.text._ZN5Timer10timePassedEv,"ax",%progbits
 1947              		.align	1
 1948              		.global	_ZN5Timer10timePassedEv
 1949              		.syntax unified
 1950              		.code	16
 1951              		.thumb_func
 1952              		.fpu softvfp
 1954              	_ZN5Timer10timePassedEv:
 1955              	.LFB2973:
 116:mculib3/src/timers.h **** uint32_t Timer::timePassed() { return timePassed_; }
 1956              		.loc 10 116 0
 1957              		.cfi_startproc
 1958              		@ args = 0, pretend = 0, frame = 8
 1959              		@ frame_needed = 1, uses_anonymous_args = 0
 1960 0000 80B5     		push	{r7, lr}
 1961              	.LCFI119:
 1962              		.cfi_def_cfa_offset 8
 1963              		.cfi_offset 7, -8
 1964              		.cfi_offset 14, -4
 1965 0002 82B0     		sub	sp, sp, #8
 1966              	.LCFI120:
 1967              		.cfi_def_cfa_offset 16
 1968 0004 00AF     		add	r7, sp, #0
 1969              	.LCFI121:
 1970              		.cfi_def_cfa_register 7
 1971 0006 7860     		str	r0, [r7, #4]
 1972              		.loc 10 116 0
 1973 0008 7B68     		ldr	r3, [r7, #4]
 1974 000a 5B69     		ldr	r3, [r3, #20]
 1975 000c 1800     		movs	r0, r3
 1976 000e BD46     		mov	sp, r7
 1977 0010 02B0     		add	sp, sp, #8
 1978              		@ sp needed
 1979 0012 80BD     		pop	{r7, pc}
 1980              		.cfi_endproc
 1981              	.LFE2973:
 1983              		.section	.text._ZN5Timer8timeLeftEv,"ax",%progbits
 1984              		.align	1
 1985              		.global	_ZN5Timer8timeLeftEv
 1986              		.syntax unified
 1987              		.code	16
 1988              		.thumb_func
